                              1 ;--------------------------------------------------------
                              2 ; File Created by SDCC : FreeWare ANSI-C Compiler
                              3 ; Version 2.2.1 Wed Oct 23 17:38:16 2019
                              4 
                              5 ;--------------------------------------------------------
                              6 	.module lcc149480
                              7 	
                              8 ;--------------------------------------------------------
                              9 ; Public variables in this module
                             10 ;--------------------------------------------------------
                             11 	.globl _asteroidcount
                             12 	.globl _main
                             13 	.globl _setupAsteroid
                             14 	.globl _setupShip
                             15 	.globl _movegamecharacter
                             16 	.globl _performantdelay
                             17 	.globl _checkCollisions
                             18 	.globl _GameOver
                             19 	.globl _GameLoop
                             20 	.globl _gets
                             21 	.globl _puts
                             22 	.globl _sprintf
                             23 	.globl _printf
                             24 	.globl _putchar
                             25 	.globl _print_repeat
                             26 	.globl _font_set
                             27 	.globl _font_load
                             28 	.globl _font_init
                             29 	.globl _setchar
                             30 	.globl _posy
                             31 	.globl _posx
                             32 	.globl _gotoxy
                             33 	.globl _color
                             34 	.globl _gotogxy
                             35 	.globl _wrtchr
                             36 	.globl _getpix
                             37 	.globl _circle
                             38 	.globl _box
                             39 	.globl _line
                             40 	.globl _draw_image
                             41 	.globl _switch_data
                             42 	.globl _plot_point
                             43 	.globl _plot
                             44 	.globl _gprintf
                             45 	.globl _gprintn
                             46 	.globl _gprintln
                             47 	.globl _gprint
                             48 	.globl _get_tiles
                             49 	.globl _set_tiles
                             50 	.globl _get_data
                             51 	.globl _set_data
                             52 	.globl _scroll_sprite
                             53 	.globl _move_sprite
                             54 	.globl _get_sprite_prop
                             55 	.globl _set_sprite_prop
                             56 	.globl _get_sprite_tile
                             57 	.globl _set_sprite_tile
                             58 	.globl _get_sprite_data
                             59 	.globl _set_sprite_data
                             60 	.globl _scroll_win
                             61 	.globl _move_win
                             62 	.globl _get_win_tiles
                             63 	.globl _set_win_tiles
                             64 	.globl _set_win_data
                             65 	.globl _scroll_bkg
                             66 	.globl _move_bkg
                             67 	.globl _get_bkg_tiles
                             68 	.globl _set_bkg_tiles
                             69 	.globl _set_bkg_data
                             70 	.globl _hiramcpy
                             71 	.globl _display_off
                             72 	.globl _wait_vbl_done
                             73 	.globl _reset
                             74 	.globl _set_interrupts
                             75 	.globl _disable_interrupts
                             76 	.globl _enable_interrupts
                             77 	.globl _waitpadup
                             78 	.globl _waitpad
                             79 	.globl _joypad
                             80 	.globl _delay
                             81 	.globl _receive_byte
                             82 	.globl _send_byte
                             83 	.globl _get_mode
                             84 	.globl _mode
                             85 	.globl _add_TIM
                             86 	.globl _add_LCD
                             87 	.globl _add_VBL
                             88 	.globl _remove_JOY
                             89 	.globl _remove_SIO
                             90 	.globl _remove_TIM
                             91 	.globl _remove_LCD
                             92 	.globl _remove_VBL
                             93 	.globl _cgb_compatibility
                             94 	.globl _cpu_fast
                             95 	.globl _cpu_slow
                             96 	.globl _set_sprite_palette_entry
                             97 	.globl _set_bkg_palette_entry
                             98 	.globl _set_sprite_palette
                             99 	.globl _set_bkg_palette
                            100 	.globl _sgb_check
                            101 	.globl _Hight
                            102 	.globl _IsGameOver
                            103 	.globl _HP
                            104 	.globl _j
                            105 	.globl _asteroidsSpawnXCount
                            106 	.globl _asteroidsSpawnX
                            107 	.globl _i
                            108 	.globl _asteroid
                            109 	.globl _spritesize
                            110 	.globl _ship
                            111 	.globl _gamesprites
                            112 ;--------------------------------------------------------
                            113 ; Externals used
                            114 ;--------------------------------------------------------
                            115 	.globl _IE_REG
                            116 	.globl _SVBK_REG
                            117 	.globl _OCPD_REG
                            118 	.globl _OCPS_REG
                            119 	.globl _BCPD_REG
                            120 	.globl _BCPS_REG
                            121 	.globl _RP_REG
                            122 	.globl _HDMA5_REG
                            123 	.globl _HDMA4_REG
                            124 	.globl _HDMA3_REG
                            125 	.globl _HDMA2_REG
                            126 	.globl _HDMA1_REG
                            127 	.globl _VBK_REG
                            128 	.globl _KEY1_REG
                            129 	.globl _WX_REG
                            130 	.globl _WY_REG
                            131 	.globl _OBP1_REG
                            132 	.globl _OBP0_REG
                            133 	.globl _BGP_REG
                            134 	.globl _DMA_REG
                            135 	.globl _LYC_REG
                            136 	.globl _LY_REG
                            137 	.globl _SCX_REG
                            138 	.globl _SCY_REG
                            139 	.globl _STAT_REG
                            140 	.globl _LCDC_REG
                            141 	.globl _NR52_REG
                            142 	.globl _NR51_REG
                            143 	.globl _NR50_REG
                            144 	.globl _NR44_REG
                            145 	.globl _NR43_REG
                            146 	.globl _NR42_REG
                            147 	.globl _NR41_REG
                            148 	.globl _NR34_REG
                            149 	.globl _NR33_REG
                            150 	.globl _NR32_REG
                            151 	.globl _NR31_REG
                            152 	.globl _NR30_REG
                            153 	.globl _NR24_REG
                            154 	.globl _NR23_REG
                            155 	.globl _NR22_REG
                            156 	.globl _NR21_REG
                            157 	.globl _NR14_REG
                            158 	.globl _NR13_REG
                            159 	.globl _NR12_REG
                            160 	.globl _NR11_REG
                            161 	.globl _NR10_REG
                            162 	.globl _IF_REG
                            163 	.globl _TAC_REG
                            164 	.globl _TMA_REG
                            165 	.globl _TIMA_REG
                            166 	.globl _DIV_REG
                            167 	.globl _SC_REG
                            168 	.globl _SB_REG
                            169 	.globl _P1_REG
                            170 	.globl _font_ibm_fixed
                            171 	.globl _font_min
                            172 	.globl _font_ibm
                            173 	.globl _font_italic
                            174 	.globl _font_spect
                            175 	.globl __io_out
                            176 	.globl __io_in
                            177 	.globl __io_status
                            178 	.globl _sys_time
                            179 	.globl __cpu
                            180 ;--------------------------------------------------------
                            181 ; special function registers
                            182 ;--------------------------------------------------------
                            183 ;--------------------------------------------------------
                            184 ; special function bits 
                            185 ;--------------------------------------------------------
                            186 ;--------------------------------------------------------
                            187 ; internal ram data
                            188 ;--------------------------------------------------------
                            189 	.area _DATA
   0000                     190 _gamesprites::
   0000                     191 	.ds 256
   0100                     192 _ship::
   0100                     193 	.ds 10
   010A                     194 _spritesize::
   010A                     195 	.ds 1
   010B                     196 _asteroid::
   010B                     197 	.ds 30
   0129                     198 _i::
   0129                     199 	.ds 2
   012B                     200 _asteroidsSpawnX::
   012B                     201 	.ds 32
   014B                     202 _asteroidsSpawnXCount::
   014B                     203 	.ds 2
   014D                     204 _j::
   014D                     205 	.ds 2
   014F                     206 _HP::
   014F                     207 	.ds 2
   0151                     208 _IsGameOver::
   0151                     209 	.ds 1
   0152                     210 _Hight::
   0152                     211 	.ds 2
                            212 ;--------------------------------------------------------
                            213 ; overlayable items in internal ram 
                            214 ;--------------------------------------------------------
                            215 	.area _OVERLAY
                            216 ;--------------------------------------------------------
                            217 ; indirectly addressable internal ram data
                            218 ;--------------------------------------------------------
                            219 	.area _ISEG
                            220 ;--------------------------------------------------------
                            221 ; bit data
                            222 ;--------------------------------------------------------
                            223 	.area _BSEG
                            224 ;--------------------------------------------------------
                            225 ; external ram data
                            226 ;--------------------------------------------------------
                            227 	.area _XSEG
                            228 ;--------------------------------------------------------
                            229 ; global & static initialisations
                            230 ;--------------------------------------------------------
                            231 	.area _GSINIT
                            232 	.area _GSFINAL
                            233 	.area _GSINIT
                            234 ;	main.c 368
                            235 ; genAssign (pointer)
   0000 11 00 00            236 	ld	de,#_gamesprites + 0
   0003 3E 00               237 	ld	a,#0x00
   0005 12                  238 	ld	(de),a
                            239 ; genPlus
                            240 ; genPlusIncr
   0006 11 01 00            241 	ld	de,#_gamesprites + 1
                            242 ; genAssign (pointer)
   0009 3E 01               243 	ld	a,#0x01
   000B 12                  244 	ld	(de),a
                            245 ; genPlus
                            246 ; genPlusIncr
   000C 11 02 00            247 	ld	de,#_gamesprites + 2
                            248 ; genAssign (pointer)
   000F 3E 00               249 	ld	a,#0x00
   0011 12                  250 	ld	(de),a
                            251 ; genPlus
                            252 ; genPlusIncr
   0012 11 03 00            253 	ld	de,#_gamesprites + 3
                            254 ; genAssign (pointer)
   0015 3E 01               255 	ld	a,#0x01
   0017 12                  256 	ld	(de),a
                            257 ; genPlus
                            258 ; genPlusIncr
   0018 11 04 00            259 	ld	de,#_gamesprites + 4
                            260 ; genAssign (pointer)
   001B 3E 01               261 	ld	a,#0x01
   001D 12                  262 	ld	(de),a
                            263 ; genPlus
                            264 ; genPlusIncr
   001E 11 05 00            265 	ld	de,#_gamesprites + 5
                            266 ; genAssign (pointer)
   0021 3E 01               267 	ld	a,#0x01
   0023 12                  268 	ld	(de),a
                            269 ; genPlus
                            270 ; genPlusIncr
   0024 11 06 00            271 	ld	de,#_gamesprites + 6
                            272 ; genAssign (pointer)
   0027 3E 01               273 	ld	a,#0x01
   0029 12                  274 	ld	(de),a
                            275 ; genPlus
                            276 ; genPlusIncr
   002A 11 07 00            277 	ld	de,#_gamesprites + 7
                            278 ; genAssign (pointer)
   002D 3E 05               279 	ld	a,#0x05
   002F 12                  280 	ld	(de),a
                            281 ; genPlus
                            282 ; genPlusIncr
   0030 11 08 00            283 	ld	de,#_gamesprites + 8
                            284 ; genAssign (pointer)
   0033 3E 01               285 	ld	a,#0x01
   0035 12                  286 	ld	(de),a
                            287 ; genPlus
                            288 ; genPlusIncr
   0036 11 09 00            289 	ld	de,#_gamesprites + 9
                            290 ; genAssign (pointer)
   0039 3E 05               291 	ld	a,#0x05
   003B 12                  292 	ld	(de),a
                            293 ; genPlus
                            294 ; genPlusIncr
   003C 11 0A 00            295 	ld	de,#_gamesprites + 10
                            296 ; genAssign (pointer)
   003F 3E 02               297 	ld	a,#0x02
   0041 12                  298 	ld	(de),a
                            299 ; genPlus
                            300 ; genPlusIncr
   0042 11 0B 00            301 	ld	de,#_gamesprites + 11
                            302 ; genAssign (pointer)
   0045 3E 07               303 	ld	a,#0x07
   0047 12                  304 	ld	(de),a
                            305 ; genPlus
                            306 ; genPlusIncr
   0048 11 0C 00            307 	ld	de,#_gamesprites + 12
                            308 ; genAssign (pointer)
   004B 3E 06               309 	ld	a,#0x06
   004D 12                  310 	ld	(de),a
                            311 ; genPlus
                            312 ; genPlusIncr
   004E 11 0D 00            313 	ld	de,#_gamesprites + 13
                            314 ; genAssign (pointer)
   0051 3E 07               315 	ld	a,#0x07
   0053 12                  316 	ld	(de),a
                            317 ; genPlus
                            318 ; genPlusIncr
   0054 11 0E 00            319 	ld	de,#_gamesprites + 14
                            320 ; genAssign (pointer)
   0057 3E 06               321 	ld	a,#0x06
   0059 12                  322 	ld	(de),a
                            323 ; genPlus
                            324 ; genPlusIncr
   005A 11 0F 00            325 	ld	de,#_gamesprites + 15
                            326 ; genAssign (pointer)
   005D 3E 07               327 	ld	a,#0x07
   005F 12                  328 	ld	(de),a
                            329 ; genPlus
                            330 ; genPlusIncr
   0060 11 10 00            331 	ld	de,#_gamesprites + 16
                            332 ; genAssign (pointer)
   0063 3E 00               333 	ld	a,#0x00
   0065 12                  334 	ld	(de),a
                            335 ; genPlus
                            336 ; genPlusIncr
   0066 11 11 00            337 	ld	de,#_gamesprites + 17
                            338 ; genAssign (pointer)
   0069 3E 80               339 	ld	a,#0x80
   006B 12                  340 	ld	(de),a
                            341 ; genPlus
                            342 ; genPlusIncr
   006C 11 12 00            343 	ld	de,#_gamesprites + 18
                            344 ; genAssign (pointer)
   006F 3E 00               345 	ld	a,#0x00
   0071 12                  346 	ld	(de),a
                            347 ; genPlus
                            348 ; genPlusIncr
   0072 11 13 00            349 	ld	de,#_gamesprites + 19
                            350 ; genAssign (pointer)
   0075 3E 80               351 	ld	a,#0x80
   0077 12                  352 	ld	(de),a
                            353 ; genPlus
                            354 ; genPlusIncr
   0078 11 14 00            355 	ld	de,#_gamesprites + 20
                            356 ; genAssign (pointer)
   007B 3E 80               357 	ld	a,#0x80
   007D 12                  358 	ld	(de),a
                            359 ; genPlus
                            360 ; genPlusIncr
   007E 11 15 00            361 	ld	de,#_gamesprites + 21
                            362 ; genAssign (pointer)
   0081 3E 80               363 	ld	a,#0x80
   0083 12                  364 	ld	(de),a
                            365 ; genPlus
                            366 ; genPlusIncr
   0084 11 16 00            367 	ld	de,#_gamesprites + 22
                            368 ; genAssign (pointer)
   0087 3E 80               369 	ld	a,#0x80
   0089 12                  370 	ld	(de),a
                            371 ; genPlus
                            372 ; genPlusIncr
   008A 11 17 00            373 	ld	de,#_gamesprites + 23
                            374 ; genAssign (pointer)
   008D 3E A0               375 	ld	a,#0xA0
   008F 12                  376 	ld	(de),a
                            377 ; genPlus
                            378 ; genPlusIncr
   0090 11 18 00            379 	ld	de,#_gamesprites + 24
                            380 ; genAssign (pointer)
   0093 3E 80               381 	ld	a,#0x80
   0095 12                  382 	ld	(de),a
                            383 ; genPlus
                            384 ; genPlusIncr
   0096 11 19 00            385 	ld	de,#_gamesprites + 25
                            386 ; genAssign (pointer)
   0099 3E A0               387 	ld	a,#0xA0
   009B 12                  388 	ld	(de),a
                            389 ; genPlus
                            390 ; genPlusIncr
   009C 11 1A 00            391 	ld	de,#_gamesprites + 26
                            392 ; genAssign (pointer)
   009F 3E 40               393 	ld	a,#0x40
   00A1 12                  394 	ld	(de),a
                            395 ; genPlus
                            396 ; genPlusIncr
   00A2 11 1B 00            397 	ld	de,#_gamesprites + 27
                            398 ; genAssign (pointer)
   00A5 3E E0               399 	ld	a,#0xE0
   00A7 12                  400 	ld	(de),a
                            401 ; genPlus
                            402 ; genPlusIncr
   00A8 11 1C 00            403 	ld	de,#_gamesprites + 28
                            404 ; genAssign (pointer)
   00AB 3E 60               405 	ld	a,#0x60
   00AD 12                  406 	ld	(de),a
                            407 ; genPlus
                            408 ; genPlusIncr
   00AE 11 1D 00            409 	ld	de,#_gamesprites + 29
                            410 ; genAssign (pointer)
   00B1 3E E0               411 	ld	a,#0xE0
   00B3 12                  412 	ld	(de),a
                            413 ; genPlus
                            414 ; genPlusIncr
   00B4 11 1E 00            415 	ld	de,#_gamesprites + 30
                            416 ; genAssign (pointer)
   00B7 3E 60               417 	ld	a,#0x60
   00B9 12                  418 	ld	(de),a
                            419 ; genPlus
                            420 ; genPlusIncr
   00BA 11 1F 00            421 	ld	de,#_gamesprites + 31
                            422 ; genAssign (pointer)
   00BD 3E E0               423 	ld	a,#0xE0
   00BF 12                  424 	ld	(de),a
                            425 ; genPlus
                            426 ; genPlusIncr
   00C0 11 20 00            427 	ld	de,#_gamesprites + 32
                            428 ; genAssign (pointer)
   00C3 3E 06               429 	ld	a,#0x06
   00C5 12                  430 	ld	(de),a
                            431 ; genPlus
                            432 ; genPlusIncr
   00C6 11 21 00            433 	ld	de,#_gamesprites + 33
                            434 ; genAssign (pointer)
   00C9 3E 07               435 	ld	a,#0x07
   00CB 12                  436 	ld	(de),a
                            437 ; genPlus
                            438 ; genPlusIncr
   00CC 11 22 00            439 	ld	de,#_gamesprites + 34
                            440 ; genAssign (pointer)
   00CF 3E 0D               441 	ld	a,#0x0D
   00D1 12                  442 	ld	(de),a
                            443 ; genPlus
                            444 ; genPlusIncr
   00D2 11 23 00            445 	ld	de,#_gamesprites + 35
                            446 ; genAssign (pointer)
   00D5 3E 0E               447 	ld	a,#0x0E
   00D7 12                  448 	ld	(de),a
                            449 ; genPlus
                            450 ; genPlusIncr
   00D8 11 24 00            451 	ld	de,#_gamesprites + 36
                            452 ; genAssign (pointer)
   00DB 3E 0D               453 	ld	a,#0x0D
   00DD 12                  454 	ld	(de),a
                            455 ; genPlus
                            456 ; genPlusIncr
   00DE 11 25 00            457 	ld	de,#_gamesprites + 37
                            458 ; genAssign (pointer)
   00E1 3E 0E               459 	ld	a,#0x0E
   00E3 12                  460 	ld	(de),a
                            461 ; genPlus
                            462 ; genPlusIncr
   00E4 11 26 00            463 	ld	de,#_gamesprites + 38
                            464 ; genAssign (pointer)
   00E7 3E 19               465 	ld	a,#0x19
   00E9 12                  466 	ld	(de),a
                            467 ; genPlus
                            468 ; genPlusIncr
   00EA 11 27 00            469 	ld	de,#_gamesprites + 39
                            470 ; genAssign (pointer)
   00ED 3E 1E               471 	ld	a,#0x1E
   00EF 12                  472 	ld	(de),a
                            473 ; genPlus
                            474 ; genPlusIncr
   00F0 11 28 00            475 	ld	de,#_gamesprites + 40
                            476 ; genAssign (pointer)
   00F3 3E 20               477 	ld	a,#0x20
   00F5 12                  478 	ld	(de),a
                            479 ; genPlus
                            480 ; genPlusIncr
   00F6 11 29 00            481 	ld	de,#_gamesprites + 41
                            482 ; genAssign (pointer)
   00F9 3E 3F               483 	ld	a,#0x3F
   00FB 12                  484 	ld	(de),a
                            485 ; genPlus
                            486 ; genPlusIncr
   00FC 11 2A 00            487 	ld	de,#_gamesprites + 42
                            488 ; genAssign (pointer)
   00FF 3E 40               489 	ld	a,#0x40
   0101 12                  490 	ld	(de),a
                            491 ; genPlus
                            492 ; genPlusIncr
   0102 11 2B 00            493 	ld	de,#_gamesprites + 43
                            494 ; genAssign (pointer)
   0105 3E 7F               495 	ld	a,#0x7F
   0107 12                  496 	ld	(de),a
                            497 ; genPlus
                            498 ; genPlusIncr
   0108 11 2C 00            499 	ld	de,#_gamesprites + 44
                            500 ; genAssign (pointer)
   010B 3E 4C               501 	ld	a,#0x4C
   010D 12                  502 	ld	(de),a
                            503 ; genPlus
                            504 ; genPlusIncr
   010E 11 2D 00            505 	ld	de,#_gamesprites + 45
                            506 ; genAssign (pointer)
   0111 3E 73               507 	ld	a,#0x73
   0113 12                  508 	ld	(de),a
                            509 ; genPlus
                            510 ; genPlusIncr
   0114 11 2E 00            511 	ld	de,#_gamesprites + 46
                            512 ; genAssign (pointer)
   0117 3E FF               513 	ld	a,#0xFF
   0119 12                  514 	ld	(de),a
                            515 ; genPlus
                            516 ; genPlusIncr
   011A 11 2F 00            517 	ld	de,#_gamesprites + 47
                            518 ; genAssign (pointer)
   011D 3E E1               519 	ld	a,#0xE1
   011F 12                  520 	ld	(de),a
                            521 ; genPlus
                            522 ; genPlusIncr
   0120 11 30 00            523 	ld	de,#_gamesprites + 48
                            524 ; genAssign (pointer)
   0123 3E 60               525 	ld	a,#0x60
   0125 12                  526 	ld	(de),a
                            527 ; genPlus
                            528 ; genPlusIncr
   0126 11 31 00            529 	ld	de,#_gamesprites + 49
                            530 ; genAssign (pointer)
   0129 3E E0               531 	ld	a,#0xE0
   012B 12                  532 	ld	(de),a
                            533 ; genPlus
                            534 ; genPlusIncr
   012C 11 32 00            535 	ld	de,#_gamesprites + 50
                            536 ; genAssign (pointer)
   012F 3E B0               537 	ld	a,#0xB0
   0131 12                  538 	ld	(de),a
                            539 ; genPlus
                            540 ; genPlusIncr
   0132 11 33 00            541 	ld	de,#_gamesprites + 51
                            542 ; genAssign (pointer)
   0135 3E 70               543 	ld	a,#0x70
   0137 12                  544 	ld	(de),a
                            545 ; genPlus
                            546 ; genPlusIncr
   0138 11 34 00            547 	ld	de,#_gamesprites + 52
                            548 ; genAssign (pointer)
   013B 3E B0               549 	ld	a,#0xB0
   013D 12                  550 	ld	(de),a
                            551 ; genPlus
                            552 ; genPlusIncr
   013E 11 35 00            553 	ld	de,#_gamesprites + 53
                            554 ; genAssign (pointer)
   0141 3E 70               555 	ld	a,#0x70
   0143 12                  556 	ld	(de),a
                            557 ; genPlus
                            558 ; genPlusIncr
   0144 11 36 00            559 	ld	de,#_gamesprites + 54
                            560 ; genAssign (pointer)
   0147 3E 98               561 	ld	a,#0x98
   0149 12                  562 	ld	(de),a
                            563 ; genPlus
                            564 ; genPlusIncr
   014A 11 37 00            565 	ld	de,#_gamesprites + 55
                            566 ; genAssign (pointer)
   014D 3E 78               567 	ld	a,#0x78
   014F 12                  568 	ld	(de),a
                            569 ; genPlus
                            570 ; genPlusIncr
   0150 11 38 00            571 	ld	de,#_gamesprites + 56
                            572 ; genAssign (pointer)
   0153 3E 04               573 	ld	a,#0x04
   0155 12                  574 	ld	(de),a
                            575 ; genPlus
                            576 ; genPlusIncr
   0156 11 39 00            577 	ld	de,#_gamesprites + 57
                            578 ; genAssign (pointer)
   0159 3E FC               579 	ld	a,#0xFC
   015B 12                  580 	ld	(de),a
                            581 ; genPlus
                            582 ; genPlusIncr
   015C 11 3A 00            583 	ld	de,#_gamesprites + 58
                            584 ; genAssign (pointer)
   015F 3E 02               585 	ld	a,#0x02
   0161 12                  586 	ld	(de),a
                            587 ; genPlus
                            588 ; genPlusIncr
   0162 11 3B 00            589 	ld	de,#_gamesprites + 59
                            590 ; genAssign (pointer)
   0165 3E FE               591 	ld	a,#0xFE
   0167 12                  592 	ld	(de),a
                            593 ; genPlus
                            594 ; genPlusIncr
   0168 11 3C 00            595 	ld	de,#_gamesprites + 60
                            596 ; genAssign (pointer)
   016B 3E 32               597 	ld	a,#0x32
   016D 12                  598 	ld	(de),a
                            599 ; genPlus
                            600 ; genPlusIncr
   016E 11 3D 00            601 	ld	de,#_gamesprites + 61
                            602 ; genAssign (pointer)
   0171 3E CE               603 	ld	a,#0xCE
   0173 12                  604 	ld	(de),a
                            605 ; genPlus
                            606 ; genPlusIncr
   0174 11 3E 00            607 	ld	de,#_gamesprites + 62
                            608 ; genAssign (pointer)
   0177 3E FF               609 	ld	a,#0xFF
   0179 12                  610 	ld	(de),a
                            611 ; genPlus
                            612 ; genPlusIncr
   017A 11 3F 00            613 	ld	de,#_gamesprites + 63
                            614 ; genAssign (pointer)
   017D 3E 87               615 	ld	a,#0x87
   017F 12                  616 	ld	(de),a
                            617 ; genPlus
                            618 ; genPlusIncr
   0180 11 40 00            619 	ld	de,#_gamesprites + 64
                            620 ; genAssign (pointer)
   0183 3E 00               621 	ld	a,#0x00
   0185 12                  622 	ld	(de),a
                            623 ; genPlus
                            624 ; genPlusIncr
   0186 11 41 00            625 	ld	de,#_gamesprites + 65
                            626 ; genAssign (pointer)
   0189 3E 00               627 	ld	a,#0x00
   018B 12                  628 	ld	(de),a
                            629 ; genPlus
                            630 ; genPlusIncr
   018C 11 42 00            631 	ld	de,#_gamesprites + 66
                            632 ; genAssign (pointer)
   018F 3E 00               633 	ld	a,#0x00
   0191 12                  634 	ld	(de),a
                            635 ; genPlus
                            636 ; genPlusIncr
   0192 11 43 00            637 	ld	de,#_gamesprites + 67
                            638 ; genAssign (pointer)
   0195 3E 1E               639 	ld	a,#0x1E
   0197 12                  640 	ld	(de),a
                            641 ; genPlus
                            642 ; genPlusIncr
   0198 11 44 00            643 	ld	de,#_gamesprites + 68
                            644 ; genAssign (pointer)
   019B 3E 00               645 	ld	a,#0x00
   019D 12                  646 	ld	(de),a
                            647 ; genPlus
                            648 ; genPlusIncr
   019E 11 45 00            649 	ld	de,#_gamesprites + 69
                            650 ; genAssign (pointer)
   01A1 3E 1F               651 	ld	a,#0x1F
   01A3 12                  652 	ld	(de),a
                            653 ; genPlus
                            654 ; genPlusIncr
   01A4 11 46 00            655 	ld	de,#_gamesprites + 70
                            656 ; genAssign (pointer)
   01A7 3E 00               657 	ld	a,#0x00
   01A9 12                  658 	ld	(de),a
                            659 ; genPlus
                            660 ; genPlusIncr
   01AA 11 47 00            661 	ld	de,#_gamesprites + 71
                            662 ; genAssign (pointer)
   01AD 3E 3F               663 	ld	a,#0x3F
   01AF 12                  664 	ld	(de),a
                            665 ; genPlus
                            666 ; genPlusIncr
   01B0 11 48 00            667 	ld	de,#_gamesprites + 72
                            668 ; genAssign (pointer)
   01B3 3E 00               669 	ld	a,#0x00
   01B5 12                  670 	ld	(de),a
                            671 ; genPlus
                            672 ; genPlusIncr
   01B6 11 49 00            673 	ld	de,#_gamesprites + 73
                            674 ; genAssign (pointer)
   01B9 3E 3F               675 	ld	a,#0x3F
   01BB 12                  676 	ld	(de),a
                            677 ; genPlus
                            678 ; genPlusIncr
   01BC 11 4A 00            679 	ld	de,#_gamesprites + 74
                            680 ; genAssign (pointer)
   01BF 3E 00               681 	ld	a,#0x00
   01C1 12                  682 	ld	(de),a
                            683 ; genPlus
                            684 ; genPlusIncr
   01C2 11 4B 00            685 	ld	de,#_gamesprites + 75
                            686 ; genAssign (pointer)
   01C5 3E 3F               687 	ld	a,#0x3F
   01C7 12                  688 	ld	(de),a
                            689 ; genPlus
                            690 ; genPlusIncr
   01C8 11 4C 00            691 	ld	de,#_gamesprites + 76
                            692 ; genAssign (pointer)
   01CB 3E 00               693 	ld	a,#0x00
   01CD 12                  694 	ld	(de),a
                            695 ; genPlus
                            696 ; genPlusIncr
   01CE 11 4D 00            697 	ld	de,#_gamesprites + 77
                            698 ; genAssign (pointer)
   01D1 3E 3F               699 	ld	a,#0x3F
   01D3 12                  700 	ld	(de),a
                            701 ; genPlus
                            702 ; genPlusIncr
   01D4 11 4E 00            703 	ld	de,#_gamesprites + 78
                            704 ; genAssign (pointer)
   01D7 3E 00               705 	ld	a,#0x00
   01D9 12                  706 	ld	(de),a
                            707 ; genPlus
                            708 ; genPlusIncr
   01DA 11 4F 00            709 	ld	de,#_gamesprites + 79
                            710 ; genAssign (pointer)
   01DD 3E 3F               711 	ld	a,#0x3F
   01DF 12                  712 	ld	(de),a
                            713 ; genPlus
                            714 ; genPlusIncr
   01E0 11 50 00            715 	ld	de,#_gamesprites + 80
                            716 ; genAssign (pointer)
   01E3 3E 00               717 	ld	a,#0x00
   01E5 12                  718 	ld	(de),a
                            719 ; genPlus
                            720 ; genPlusIncr
   01E6 11 51 00            721 	ld	de,#_gamesprites + 81
                            722 ; genAssign (pointer)
   01E9 3E 00               723 	ld	a,#0x00
   01EB 12                  724 	ld	(de),a
                            725 ; genPlus
                            726 ; genPlusIncr
   01EC 11 52 00            727 	ld	de,#_gamesprites + 82
                            728 ; genAssign (pointer)
   01EF 3E 00               729 	ld	a,#0x00
   01F1 12                  730 	ld	(de),a
                            731 ; genPlus
                            732 ; genPlusIncr
   01F2 11 53 00            733 	ld	de,#_gamesprites + 83
                            734 ; genAssign (pointer)
   01F5 3E 00               735 	ld	a,#0x00
   01F7 12                  736 	ld	(de),a
                            737 ; genPlus
                            738 ; genPlusIncr
   01F8 11 54 00            739 	ld	de,#_gamesprites + 84
                            740 ; genAssign (pointer)
   01FB 3E 00               741 	ld	a,#0x00
   01FD 12                  742 	ld	(de),a
                            743 ; genPlus
                            744 ; genPlusIncr
   01FE 11 55 00            745 	ld	de,#_gamesprites + 85
                            746 ; genAssign (pointer)
   0201 3E E0               747 	ld	a,#0xE0
   0203 12                  748 	ld	(de),a
                            749 ; genPlus
                            750 ; genPlusIncr
   0204 11 56 00            751 	ld	de,#_gamesprites + 86
                            752 ; genAssign (pointer)
   0207 3E 00               753 	ld	a,#0x00
   0209 12                  754 	ld	(de),a
                            755 ; genPlus
                            756 ; genPlusIncr
   020A 11 57 00            757 	ld	de,#_gamesprites + 87
                            758 ; genAssign (pointer)
   020D 3E F0               759 	ld	a,#0xF0
   020F 12                  760 	ld	(de),a
                            761 ; genPlus
                            762 ; genPlusIncr
   0210 11 58 00            763 	ld	de,#_gamesprites + 88
                            764 ; genAssign (pointer)
   0213 3E 00               765 	ld	a,#0x00
   0215 12                  766 	ld	(de),a
                            767 ; genPlus
                            768 ; genPlusIncr
   0216 11 59 00            769 	ld	de,#_gamesprites + 89
                            770 ; genAssign (pointer)
   0219 3E FC               771 	ld	a,#0xFC
   021B 12                  772 	ld	(de),a
                            773 ; genPlus
                            774 ; genPlusIncr
   021C 11 5A 00            775 	ld	de,#_gamesprites + 90
                            776 ; genAssign (pointer)
   021F 3E 00               777 	ld	a,#0x00
   0221 12                  778 	ld	(de),a
                            779 ; genPlus
                            780 ; genPlusIncr
   0222 11 5B 00            781 	ld	de,#_gamesprites + 91
                            782 ; genAssign (pointer)
   0225 3E FE               783 	ld	a,#0xFE
   0227 12                  784 	ld	(de),a
                            785 ; genPlus
                            786 ; genPlusIncr
   0228 11 5C 00            787 	ld	de,#_gamesprites + 92
                            788 ; genAssign (pointer)
   022B 3E 00               789 	ld	a,#0x00
   022D 12                  790 	ld	(de),a
                            791 ; genPlus
                            792 ; genPlusIncr
   022E 11 5D 00            793 	ld	de,#_gamesprites + 93
                            794 ; genAssign (pointer)
   0231 3E FF               795 	ld	a,#0xFF
   0233 12                  796 	ld	(de),a
                            797 ; genPlus
                            798 ; genPlusIncr
   0234 11 5E 00            799 	ld	de,#_gamesprites + 94
                            800 ; genAssign (pointer)
   0237 3E 00               801 	ld	a,#0x00
   0239 12                  802 	ld	(de),a
                            803 ; genPlus
                            804 ; genPlusIncr
   023A 11 5F 00            805 	ld	de,#_gamesprites + 95
                            806 ; genAssign (pointer)
   023D 3E FF               807 	ld	a,#0xFF
   023F 12                  808 	ld	(de),a
                            809 ; genPlus
                            810 ; genPlusIncr
   0240 11 60 00            811 	ld	de,#_gamesprites + 96
                            812 ; genAssign (pointer)
   0243 3E 00               813 	ld	a,#0x00
   0245 12                  814 	ld	(de),a
                            815 ; genPlus
                            816 ; genPlusIncr
   0246 11 61 00            817 	ld	de,#_gamesprites + 97
                            818 ; genAssign (pointer)
   0249 3E 7F               819 	ld	a,#0x7F
   024B 12                  820 	ld	(de),a
                            821 ; genPlus
                            822 ; genPlusIncr
   024C 11 62 00            823 	ld	de,#_gamesprites + 98
                            824 ; genAssign (pointer)
   024F 3E 00               825 	ld	a,#0x00
   0251 12                  826 	ld	(de),a
                            827 ; genPlus
                            828 ; genPlusIncr
   0252 11 63 00            829 	ld	de,#_gamesprites + 99
                            830 ; genAssign (pointer)
   0255 3E 3F               831 	ld	a,#0x3F
   0257 12                  832 	ld	(de),a
                            833 ; genPlus
                            834 ; genPlusIncr
   0258 11 64 00            835 	ld	de,#_gamesprites + 100
                            836 ; genAssign (pointer)
   025B 3E 00               837 	ld	a,#0x00
   025D 12                  838 	ld	(de),a
                            839 ; genPlus
                            840 ; genPlusIncr
   025E 11 65 00            841 	ld	de,#_gamesprites + 101
                            842 ; genAssign (pointer)
   0261 3E 3F               843 	ld	a,#0x3F
   0263 12                  844 	ld	(de),a
                            845 ; genPlus
                            846 ; genPlusIncr
   0264 11 66 00            847 	ld	de,#_gamesprites + 102
                            848 ; genAssign (pointer)
   0267 3E 00               849 	ld	a,#0x00
   0269 12                  850 	ld	(de),a
                            851 ; genPlus
                            852 ; genPlusIncr
   026A 11 67 00            853 	ld	de,#_gamesprites + 103
                            854 ; genAssign (pointer)
   026D 3E 3F               855 	ld	a,#0x3F
   026F 12                  856 	ld	(de),a
                            857 ; genPlus
                            858 ; genPlusIncr
   0270 11 68 00            859 	ld	de,#_gamesprites + 104
                            860 ; genAssign (pointer)
   0273 3E 00               861 	ld	a,#0x00
   0275 12                  862 	ld	(de),a
                            863 ; genPlus
                            864 ; genPlusIncr
   0276 11 69 00            865 	ld	de,#_gamesprites + 105
                            866 ; genAssign (pointer)
   0279 3E 1F               867 	ld	a,#0x1F
   027B 12                  868 	ld	(de),a
                            869 ; genPlus
                            870 ; genPlusIncr
   027C 11 6A 00            871 	ld	de,#_gamesprites + 106
                            872 ; genAssign (pointer)
   027F 3E 00               873 	ld	a,#0x00
   0281 12                  874 	ld	(de),a
                            875 ; genPlus
                            876 ; genPlusIncr
   0282 11 6B 00            877 	ld	de,#_gamesprites + 107
                            878 ; genAssign (pointer)
   0285 3E 03               879 	ld	a,#0x03
   0287 12                  880 	ld	(de),a
                            881 ; genPlus
                            882 ; genPlusIncr
   0288 11 6C 00            883 	ld	de,#_gamesprites + 108
                            884 ; genAssign (pointer)
   028B 3E 00               885 	ld	a,#0x00
   028D 12                  886 	ld	(de),a
                            887 ; genPlus
                            888 ; genPlusIncr
   028E 11 6D 00            889 	ld	de,#_gamesprites + 109
                            890 ; genAssign (pointer)
   0291 3E 00               891 	ld	a,#0x00
   0293 12                  892 	ld	(de),a
                            893 ; genPlus
                            894 ; genPlusIncr
   0294 11 6E 00            895 	ld	de,#_gamesprites + 110
                            896 ; genAssign (pointer)
   0297 3E 00               897 	ld	a,#0x00
   0299 12                  898 	ld	(de),a
                            899 ; genPlus
                            900 ; genPlusIncr
   029A 11 6F 00            901 	ld	de,#_gamesprites + 111
                            902 ; genAssign (pointer)
   029D 3E 00               903 	ld	a,#0x00
   029F 12                  904 	ld	(de),a
                            905 ; genPlus
                            906 ; genPlusIncr
   02A0 11 70 00            907 	ld	de,#_gamesprites + 112
                            908 ; genAssign (pointer)
   02A3 3E 00               909 	ld	a,#0x00
   02A5 12                  910 	ld	(de),a
                            911 ; genPlus
                            912 ; genPlusIncr
   02A6 11 71 00            913 	ld	de,#_gamesprites + 113
                            914 ; genAssign (pointer)
   02A9 3E FF               915 	ld	a,#0xFF
   02AB 12                  916 	ld	(de),a
                            917 ; genPlus
                            918 ; genPlusIncr
   02AC 11 72 00            919 	ld	de,#_gamesprites + 114
                            920 ; genAssign (pointer)
   02AF 3E 00               921 	ld	a,#0x00
   02B1 12                  922 	ld	(de),a
                            923 ; genPlus
                            924 ; genPlusIncr
   02B2 11 73 00            925 	ld	de,#_gamesprites + 115
                            926 ; genAssign (pointer)
   02B5 3E FF               927 	ld	a,#0xFF
   02B7 12                  928 	ld	(de),a
                            929 ; genPlus
                            930 ; genPlusIncr
   02B8 11 74 00            931 	ld	de,#_gamesprites + 116
                            932 ; genAssign (pointer)
   02BB 3E 00               933 	ld	a,#0x00
   02BD 12                  934 	ld	(de),a
                            935 ; genPlus
                            936 ; genPlusIncr
   02BE 11 75 00            937 	ld	de,#_gamesprites + 117
                            938 ; genAssign (pointer)
   02C1 3E FF               939 	ld	a,#0xFF
   02C3 12                  940 	ld	(de),a
                            941 ; genPlus
                            942 ; genPlusIncr
   02C4 11 76 00            943 	ld	de,#_gamesprites + 118
                            944 ; genAssign (pointer)
   02C7 3E 00               945 	ld	a,#0x00
   02C9 12                  946 	ld	(de),a
                            947 ; genPlus
                            948 ; genPlusIncr
   02CA 11 77 00            949 	ld	de,#_gamesprites + 119
                            950 ; genAssign (pointer)
   02CD 3E FF               951 	ld	a,#0xFF
   02CF 12                  952 	ld	(de),a
                            953 ; genPlus
                            954 ; genPlusIncr
   02D0 11 78 00            955 	ld	de,#_gamesprites + 120
                            956 ; genAssign (pointer)
   02D3 3E 00               957 	ld	a,#0x00
   02D5 12                  958 	ld	(de),a
                            959 ; genPlus
                            960 ; genPlusIncr
   02D6 11 79 00            961 	ld	de,#_gamesprites + 121
                            962 ; genAssign (pointer)
   02D9 3E FF               963 	ld	a,#0xFF
   02DB 12                  964 	ld	(de),a
                            965 ; genPlus
                            966 ; genPlusIncr
   02DC 11 7A 00            967 	ld	de,#_gamesprites + 122
                            968 ; genAssign (pointer)
   02DF 3E 00               969 	ld	a,#0x00
   02E1 12                  970 	ld	(de),a
                            971 ; genPlus
                            972 ; genPlusIncr
   02E2 11 7B 00            973 	ld	de,#_gamesprites + 123
                            974 ; genAssign (pointer)
   02E5 3E FC               975 	ld	a,#0xFC
   02E7 12                  976 	ld	(de),a
                            977 ; genPlus
                            978 ; genPlusIncr
   02E8 11 7C 00            979 	ld	de,#_gamesprites + 124
                            980 ; genAssign (pointer)
   02EB 3E 00               981 	ld	a,#0x00
   02ED 12                  982 	ld	(de),a
                            983 ; genPlus
                            984 ; genPlusIncr
   02EE 11 7D 00            985 	ld	de,#_gamesprites + 125
                            986 ; genAssign (pointer)
   02F1 3E 00               987 	ld	a,#0x00
   02F3 12                  988 	ld	(de),a
                            989 ; genPlus
                            990 ; genPlusIncr
   02F4 11 7E 00            991 	ld	de,#_gamesprites + 126
                            992 ; genAssign (pointer)
   02F7 3E 00               993 	ld	a,#0x00
   02F9 12                  994 	ld	(de),a
                            995 ; genPlus
                            996 ; genPlusIncr
   02FA 11 7F 00            997 	ld	de,#_gamesprites + 127
                            998 ; genAssign (pointer)
   02FD 3E 00               999 	ld	a,#0x00
   02FF 12                 1000 	ld	(de),a
                           1001 ; genPlus
                           1002 ; genPlusIncr
   0300 11 80 00           1003 	ld	de,#_gamesprites + 128
                           1004 ; genAssign (pointer)
   0303 3E 00              1005 	ld	a,#0x00
   0305 12                 1006 	ld	(de),a
                           1007 ; genPlus
                           1008 ; genPlusIncr
   0306 11 81 00           1009 	ld	de,#_gamesprites + 129
                           1010 ; genAssign (pointer)
   0309 3E 00              1011 	ld	a,#0x00
   030B 12                 1012 	ld	(de),a
                           1013 ; genPlus
                           1014 ; genPlusIncr
   030C 11 82 00           1015 	ld	de,#_gamesprites + 130
                           1016 ; genAssign (pointer)
   030F 3E 00              1017 	ld	a,#0x00
   0311 12                 1018 	ld	(de),a
                           1019 ; genPlus
                           1020 ; genPlusIncr
   0312 11 83 00           1021 	ld	de,#_gamesprites + 131
                           1022 ; genAssign (pointer)
   0315 3E 0F              1023 	ld	a,#0x0F
   0317 12                 1024 	ld	(de),a
                           1025 ; genPlus
                           1026 ; genPlusIncr
   0318 11 84 00           1027 	ld	de,#_gamesprites + 132
                           1028 ; genAssign (pointer)
   031B 3E 00              1029 	ld	a,#0x00
   031D 12                 1030 	ld	(de),a
                           1031 ; genPlus
                           1032 ; genPlusIncr
   031E 11 85 00           1033 	ld	de,#_gamesprites + 133
                           1034 ; genAssign (pointer)
   0321 3E 3F              1035 	ld	a,#0x3F
   0323 12                 1036 	ld	(de),a
                           1037 ; genPlus
                           1038 ; genPlusIncr
   0324 11 86 00           1039 	ld	de,#_gamesprites + 134
                           1040 ; genAssign (pointer)
   0327 3E 00              1041 	ld	a,#0x00
   0329 12                 1042 	ld	(de),a
                           1043 ; genPlus
                           1044 ; genPlusIncr
   032A 11 87 00           1045 	ld	de,#_gamesprites + 135
                           1046 ; genAssign (pointer)
   032D 3E 3F              1047 	ld	a,#0x3F
   032F 12                 1048 	ld	(de),a
                           1049 ; genPlus
                           1050 ; genPlusIncr
   0330 11 88 00           1051 	ld	de,#_gamesprites + 136
                           1052 ; genAssign (pointer)
   0333 3E 00              1053 	ld	a,#0x00
   0335 12                 1054 	ld	(de),a
                           1055 ; genPlus
                           1056 ; genPlusIncr
   0336 11 89 00           1057 	ld	de,#_gamesprites + 137
                           1058 ; genAssign (pointer)
   0339 3E 3F              1059 	ld	a,#0x3F
   033B 12                 1060 	ld	(de),a
                           1061 ; genPlus
                           1062 ; genPlusIncr
   033C 11 8A 00           1063 	ld	de,#_gamesprites + 138
                           1064 ; genAssign (pointer)
   033F 3E 00              1065 	ld	a,#0x00
   0341 12                 1066 	ld	(de),a
                           1067 ; genPlus
                           1068 ; genPlusIncr
   0342 11 8B 00           1069 	ld	de,#_gamesprites + 139
                           1070 ; genAssign (pointer)
   0345 3E 3F              1071 	ld	a,#0x3F
   0347 12                 1072 	ld	(de),a
                           1073 ; genPlus
                           1074 ; genPlusIncr
   0348 11 8C 00           1075 	ld	de,#_gamesprites + 140
                           1076 ; genAssign (pointer)
   034B 3E 00              1077 	ld	a,#0x00
   034D 12                 1078 	ld	(de),a
                           1079 ; genPlus
                           1080 ; genPlusIncr
   034E 11 8D 00           1081 	ld	de,#_gamesprites + 141
                           1082 ; genAssign (pointer)
   0351 3E 7F              1083 	ld	a,#0x7F
   0353 12                 1084 	ld	(de),a
                           1085 ; genPlus
                           1086 ; genPlusIncr
   0354 11 8E 00           1087 	ld	de,#_gamesprites + 142
                           1088 ; genAssign (pointer)
   0357 3E 00              1089 	ld	a,#0x00
   0359 12                 1090 	ld	(de),a
                           1091 ; genPlus
                           1092 ; genPlusIncr
   035A 11 8F 00           1093 	ld	de,#_gamesprites + 143
                           1094 ; genAssign (pointer)
   035D 3E 7F              1095 	ld	a,#0x7F
   035F 12                 1096 	ld	(de),a
                           1097 ; genPlus
                           1098 ; genPlusIncr
   0360 11 90 00           1099 	ld	de,#_gamesprites + 144
                           1100 ; genAssign (pointer)
   0363 3E 00              1101 	ld	a,#0x00
   0365 12                 1102 	ld	(de),a
                           1103 ; genPlus
                           1104 ; genPlusIncr
   0366 11 91 00           1105 	ld	de,#_gamesprites + 145
                           1106 ; genAssign (pointer)
   0369 3E 00              1107 	ld	a,#0x00
   036B 12                 1108 	ld	(de),a
                           1109 ; genPlus
                           1110 ; genPlusIncr
   036C 11 92 00           1111 	ld	de,#_gamesprites + 146
                           1112 ; genAssign (pointer)
   036F 3E 00              1113 	ld	a,#0x00
   0371 12                 1114 	ld	(de),a
                           1115 ; genPlus
                           1116 ; genPlusIncr
   0372 11 93 00           1117 	ld	de,#_gamesprites + 147
                           1118 ; genAssign (pointer)
   0375 3E C0              1119 	ld	a,#0xC0
   0377 12                 1120 	ld	(de),a
                           1121 ; genPlus
                           1122 ; genPlusIncr
   0378 11 94 00           1123 	ld	de,#_gamesprites + 148
                           1124 ; genAssign (pointer)
   037B 3E 00              1125 	ld	a,#0x00
   037D 12                 1126 	ld	(de),a
                           1127 ; genPlus
                           1128 ; genPlusIncr
   037E 11 95 00           1129 	ld	de,#_gamesprites + 149
                           1130 ; genAssign (pointer)
   0381 3E F8              1131 	ld	a,#0xF8
   0383 12                 1132 	ld	(de),a
                           1133 ; genPlus
                           1134 ; genPlusIncr
   0384 11 96 00           1135 	ld	de,#_gamesprites + 150
                           1136 ; genAssign (pointer)
   0387 3E 00              1137 	ld	a,#0x00
   0389 12                 1138 	ld	(de),a
                           1139 ; genPlus
                           1140 ; genPlusIncr
   038A 11 97 00           1141 	ld	de,#_gamesprites + 151
                           1142 ; genAssign (pointer)
   038D 3E FE              1143 	ld	a,#0xFE
   038F 12                 1144 	ld	(de),a
                           1145 ; genPlus
                           1146 ; genPlusIncr
   0390 11 98 00           1147 	ld	de,#_gamesprites + 152
                           1148 ; genAssign (pointer)
   0393 3E 00              1149 	ld	a,#0x00
   0395 12                 1150 	ld	(de),a
                           1151 ; genPlus
                           1152 ; genPlusIncr
   0396 11 99 00           1153 	ld	de,#_gamesprites + 153
                           1154 ; genAssign (pointer)
   0399 3E FE              1155 	ld	a,#0xFE
   039B 12                 1156 	ld	(de),a
                           1157 ; genPlus
                           1158 ; genPlusIncr
   039C 11 9A 00           1159 	ld	de,#_gamesprites + 154
                           1160 ; genAssign (pointer)
   039F 3E 00              1161 	ld	a,#0x00
   03A1 12                 1162 	ld	(de),a
                           1163 ; genPlus
                           1164 ; genPlusIncr
   03A2 11 9B 00           1165 	ld	de,#_gamesprites + 155
                           1166 ; genAssign (pointer)
   03A5 3E FF              1167 	ld	a,#0xFF
   03A7 12                 1168 	ld	(de),a
                           1169 ; genPlus
                           1170 ; genPlusIncr
   03A8 11 9C 00           1171 	ld	de,#_gamesprites + 156
                           1172 ; genAssign (pointer)
   03AB 3E 00              1173 	ld	a,#0x00
   03AD 12                 1174 	ld	(de),a
                           1175 ; genPlus
                           1176 ; genPlusIncr
   03AE 11 9D 00           1177 	ld	de,#_gamesprites + 157
                           1178 ; genAssign (pointer)
   03B1 3E FF              1179 	ld	a,#0xFF
   03B3 12                 1180 	ld	(de),a
                           1181 ; genPlus
                           1182 ; genPlusIncr
   03B4 11 9E 00           1183 	ld	de,#_gamesprites + 158
                           1184 ; genAssign (pointer)
   03B7 3E 00              1185 	ld	a,#0x00
   03B9 12                 1186 	ld	(de),a
                           1187 ; genPlus
                           1188 ; genPlusIncr
   03BA 11 9F 00           1189 	ld	de,#_gamesprites + 159
                           1190 ; genAssign (pointer)
   03BD 3E FF              1191 	ld	a,#0xFF
   03BF 12                 1192 	ld	(de),a
                           1193 ; genPlus
                           1194 ; genPlusIncr
   03C0 11 A0 00           1195 	ld	de,#_gamesprites + 160
                           1196 ; genAssign (pointer)
   03C3 3E 00              1197 	ld	a,#0x00
   03C5 12                 1198 	ld	(de),a
                           1199 ; genPlus
                           1200 ; genPlusIncr
   03C6 11 A1 00           1201 	ld	de,#_gamesprites + 161
                           1202 ; genAssign (pointer)
   03C9 3E 7F              1203 	ld	a,#0x7F
   03CB 12                 1204 	ld	(de),a
                           1205 ; genPlus
                           1206 ; genPlusIncr
   03CC 11 A2 00           1207 	ld	de,#_gamesprites + 162
                           1208 ; genAssign (pointer)
   03CF 3E 00              1209 	ld	a,#0x00
   03D1 12                 1210 	ld	(de),a
                           1211 ; genPlus
                           1212 ; genPlusIncr
   03D2 11 A3 00           1213 	ld	de,#_gamesprites + 163
                           1214 ; genAssign (pointer)
   03D5 3E 7F              1215 	ld	a,#0x7F
   03D7 12                 1216 	ld	(de),a
                           1217 ; genPlus
                           1218 ; genPlusIncr
   03D8 11 A4 00           1219 	ld	de,#_gamesprites + 164
                           1220 ; genAssign (pointer)
   03DB 3E 00              1221 	ld	a,#0x00
   03DD 12                 1222 	ld	(de),a
                           1223 ; genPlus
                           1224 ; genPlusIncr
   03DE 11 A5 00           1225 	ld	de,#_gamesprites + 165
                           1226 ; genAssign (pointer)
   03E1 3E 7F              1227 	ld	a,#0x7F
   03E3 12                 1228 	ld	(de),a
                           1229 ; genPlus
                           1230 ; genPlusIncr
   03E4 11 A6 00           1231 	ld	de,#_gamesprites + 166
                           1232 ; genAssign (pointer)
   03E7 3E 00              1233 	ld	a,#0x00
   03E9 12                 1234 	ld	(de),a
                           1235 ; genPlus
                           1236 ; genPlusIncr
   03EA 11 A7 00           1237 	ld	de,#_gamesprites + 167
                           1238 ; genAssign (pointer)
   03ED 3E 3F              1239 	ld	a,#0x3F
   03EF 12                 1240 	ld	(de),a
                           1241 ; genPlus
                           1242 ; genPlusIncr
   03F0 11 A8 00           1243 	ld	de,#_gamesprites + 168
                           1244 ; genAssign (pointer)
   03F3 3E 00              1245 	ld	a,#0x00
   03F5 12                 1246 	ld	(de),a
                           1247 ; genPlus
                           1248 ; genPlusIncr
   03F6 11 A9 00           1249 	ld	de,#_gamesprites + 169
                           1250 ; genAssign (pointer)
   03F9 3E 3F              1251 	ld	a,#0x3F
   03FB 12                 1252 	ld	(de),a
                           1253 ; genPlus
                           1254 ; genPlusIncr
   03FC 11 AA 00           1255 	ld	de,#_gamesprites + 170
                           1256 ; genAssign (pointer)
   03FF 3E 00              1257 	ld	a,#0x00
   0401 12                 1258 	ld	(de),a
                           1259 ; genPlus
                           1260 ; genPlusIncr
   0402 11 AB 00           1261 	ld	de,#_gamesprites + 171
                           1262 ; genAssign (pointer)
   0405 3E 1F              1263 	ld	a,#0x1F
   0407 12                 1264 	ld	(de),a
                           1265 ; genPlus
                           1266 ; genPlusIncr
   0408 11 AC 00           1267 	ld	de,#_gamesprites + 172
                           1268 ; genAssign (pointer)
   040B 3E 00              1269 	ld	a,#0x00
   040D 12                 1270 	ld	(de),a
                           1271 ; genPlus
                           1272 ; genPlusIncr
   040E 11 AD 00           1273 	ld	de,#_gamesprites + 173
                           1274 ; genAssign (pointer)
   0411 3E 00              1275 	ld	a,#0x00
   0413 12                 1276 	ld	(de),a
                           1277 ; genPlus
                           1278 ; genPlusIncr
   0414 11 AE 00           1279 	ld	de,#_gamesprites + 174
                           1280 ; genAssign (pointer)
   0417 3E 00              1281 	ld	a,#0x00
   0419 12                 1282 	ld	(de),a
                           1283 ; genPlus
                           1284 ; genPlusIncr
   041A 11 AF 00           1285 	ld	de,#_gamesprites + 175
                           1286 ; genAssign (pointer)
   041D 3E 00              1287 	ld	a,#0x00
   041F 12                 1288 	ld	(de),a
                           1289 ; genPlus
                           1290 ; genPlusIncr
   0420 11 B0 00           1291 	ld	de,#_gamesprites + 176
                           1292 ; genAssign (pointer)
   0423 3E 00              1293 	ld	a,#0x00
   0425 12                 1294 	ld	(de),a
                           1295 ; genPlus
                           1296 ; genPlusIncr
   0426 11 B1 00           1297 	ld	de,#_gamesprites + 177
                           1298 ; genAssign (pointer)
   0429 3E FC              1299 	ld	a,#0xFC
   042B 12                 1300 	ld	(de),a
                           1301 ; genPlus
                           1302 ; genPlusIncr
   042C 11 B2 00           1303 	ld	de,#_gamesprites + 178
                           1304 ; genAssign (pointer)
   042F 3E 00              1305 	ld	a,#0x00
   0431 12                 1306 	ld	(de),a
                           1307 ; genPlus
                           1308 ; genPlusIncr
   0432 11 B3 00           1309 	ld	de,#_gamesprites + 179
                           1310 ; genAssign (pointer)
   0435 3E F8              1311 	ld	a,#0xF8
   0437 12                 1312 	ld	(de),a
                           1313 ; genPlus
                           1314 ; genPlusIncr
   0438 11 B4 00           1315 	ld	de,#_gamesprites + 180
                           1316 ; genAssign (pointer)
   043B 3E 00              1317 	ld	a,#0x00
   043D 12                 1318 	ld	(de),a
                           1319 ; genPlus
                           1320 ; genPlusIncr
   043E 11 B5 00           1321 	ld	de,#_gamesprites + 181
                           1322 ; genAssign (pointer)
   0441 3E F0              1323 	ld	a,#0xF0
   0443 12                 1324 	ld	(de),a
                           1325 ; genPlus
                           1326 ; genPlusIncr
   0444 11 B6 00           1327 	ld	de,#_gamesprites + 182
                           1328 ; genAssign (pointer)
   0447 3E 00              1329 	ld	a,#0x00
   0449 12                 1330 	ld	(de),a
                           1331 ; genPlus
                           1332 ; genPlusIncr
   044A 11 B7 00           1333 	ld	de,#_gamesprites + 183
                           1334 ; genAssign (pointer)
   044D 3E F0              1335 	ld	a,#0xF0
   044F 12                 1336 	ld	(de),a
                           1337 ; genPlus
                           1338 ; genPlusIncr
   0450 11 B8 00           1339 	ld	de,#_gamesprites + 184
                           1340 ; genAssign (pointer)
   0453 3E 00              1341 	ld	a,#0x00
   0455 12                 1342 	ld	(de),a
                           1343 ; genPlus
                           1344 ; genPlusIncr
   0456 11 B9 00           1345 	ld	de,#_gamesprites + 185
                           1346 ; genAssign (pointer)
   0459 3E C0              1347 	ld	a,#0xC0
   045B 12                 1348 	ld	(de),a
                           1349 ; genPlus
                           1350 ; genPlusIncr
   045C 11 BA 00           1351 	ld	de,#_gamesprites + 186
                           1352 ; genAssign (pointer)
   045F 3E 00              1353 	ld	a,#0x00
   0461 12                 1354 	ld	(de),a
                           1355 ; genPlus
                           1356 ; genPlusIncr
   0462 11 BB 00           1357 	ld	de,#_gamesprites + 187
                           1358 ; genAssign (pointer)
   0465 3E 00              1359 	ld	a,#0x00
   0467 12                 1360 	ld	(de),a
                           1361 ; genPlus
                           1362 ; genPlusIncr
   0468 11 BC 00           1363 	ld	de,#_gamesprites + 188
                           1364 ; genAssign (pointer)
   046B 3E 00              1365 	ld	a,#0x00
   046D 12                 1366 	ld	(de),a
                           1367 ; genPlus
                           1368 ; genPlusIncr
   046E 11 BD 00           1369 	ld	de,#_gamesprites + 189
                           1370 ; genAssign (pointer)
   0471 3E 00              1371 	ld	a,#0x00
   0473 12                 1372 	ld	(de),a
                           1373 ; genPlus
                           1374 ; genPlusIncr
   0474 11 BE 00           1375 	ld	de,#_gamesprites + 190
                           1376 ; genAssign (pointer)
   0477 3E 00              1377 	ld	a,#0x00
   0479 12                 1378 	ld	(de),a
                           1379 ; genPlus
                           1380 ; genPlusIncr
   047A 11 BF 00           1381 	ld	de,#_gamesprites + 191
                           1382 ; genAssign (pointer)
   047D 3E 00              1383 	ld	a,#0x00
   047F 12                 1384 	ld	(de),a
                           1385 ; genPlus
                           1386 ; genPlusIncr
   0480 11 C0 00           1387 	ld	de,#_gamesprites + 192
                           1388 ; genAssign (pointer)
   0483 3E 00              1389 	ld	a,#0x00
   0485 12                 1390 	ld	(de),a
                           1391 ; genPlus
                           1392 ; genPlusIncr
   0486 11 C1 00           1393 	ld	de,#_gamesprites + 193
                           1394 ; genAssign (pointer)
   0489 3E 00              1395 	ld	a,#0x00
   048B 12                 1396 	ld	(de),a
                           1397 ; genPlus
                           1398 ; genPlusIncr
   048C 11 C2 00           1399 	ld	de,#_gamesprites + 194
                           1400 ; genAssign (pointer)
   048F 3E 00              1401 	ld	a,#0x00
   0491 12                 1402 	ld	(de),a
                           1403 ; genPlus
                           1404 ; genPlusIncr
   0492 11 C3 00           1405 	ld	de,#_gamesprites + 195
                           1406 ; genAssign (pointer)
   0495 3E 00              1407 	ld	a,#0x00
   0497 12                 1408 	ld	(de),a
                           1409 ; genPlus
                           1410 ; genPlusIncr
   0498 11 C4 00           1411 	ld	de,#_gamesprites + 196
                           1412 ; genAssign (pointer)
   049B 3E 00              1413 	ld	a,#0x00
   049D 12                 1414 	ld	(de),a
                           1415 ; genPlus
                           1416 ; genPlusIncr
   049E 11 C5 00           1417 	ld	de,#_gamesprites + 197
                           1418 ; genAssign (pointer)
   04A1 3E 1F              1419 	ld	a,#0x1F
   04A3 12                 1420 	ld	(de),a
                           1421 ; genPlus
                           1422 ; genPlusIncr
   04A4 11 C6 00           1423 	ld	de,#_gamesprites + 198
                           1424 ; genAssign (pointer)
   04A7 3E 00              1425 	ld	a,#0x00
   04A9 12                 1426 	ld	(de),a
                           1427 ; genPlus
                           1428 ; genPlusIncr
   04AA 11 C7 00           1429 	ld	de,#_gamesprites + 199
                           1430 ; genAssign (pointer)
   04AD 3E 1F              1431 	ld	a,#0x1F
   04AF 12                 1432 	ld	(de),a
                           1433 ; genPlus
                           1434 ; genPlusIncr
   04B0 11 C8 00           1435 	ld	de,#_gamesprites + 200
                           1436 ; genAssign (pointer)
   04B3 3E 00              1437 	ld	a,#0x00
   04B5 12                 1438 	ld	(de),a
                           1439 ; genPlus
                           1440 ; genPlusIncr
   04B6 11 C9 00           1441 	ld	de,#_gamesprites + 201
                           1442 ; genAssign (pointer)
   04B9 3E 3F              1443 	ld	a,#0x3F
   04BB 12                 1444 	ld	(de),a
                           1445 ; genPlus
                           1446 ; genPlusIncr
   04BC 11 CA 00           1447 	ld	de,#_gamesprites + 202
                           1448 ; genAssign (pointer)
   04BF 3E 00              1449 	ld	a,#0x00
   04C1 12                 1450 	ld	(de),a
                           1451 ; genPlus
                           1452 ; genPlusIncr
   04C2 11 CB 00           1453 	ld	de,#_gamesprites + 203
                           1454 ; genAssign (pointer)
   04C5 3E 3F              1455 	ld	a,#0x3F
   04C7 12                 1456 	ld	(de),a
                           1457 ; genPlus
                           1458 ; genPlusIncr
   04C8 11 CC 00           1459 	ld	de,#_gamesprites + 204
                           1460 ; genAssign (pointer)
   04CB 3E 00              1461 	ld	a,#0x00
   04CD 12                 1462 	ld	(de),a
                           1463 ; genPlus
                           1464 ; genPlusIncr
   04CE 11 CD 00           1465 	ld	de,#_gamesprites + 205
                           1466 ; genAssign (pointer)
   04D1 3E 3F              1467 	ld	a,#0x3F
   04D3 12                 1468 	ld	(de),a
                           1469 ; genPlus
                           1470 ; genPlusIncr
   04D4 11 CE 00           1471 	ld	de,#_gamesprites + 206
                           1472 ; genAssign (pointer)
   04D7 3E 00              1473 	ld	a,#0x00
   04D9 12                 1474 	ld	(de),a
                           1475 ; genPlus
                           1476 ; genPlusIncr
   04DA 11 CF 00           1477 	ld	de,#_gamesprites + 207
                           1478 ; genAssign (pointer)
   04DD 3E 1F              1479 	ld	a,#0x1F
   04DF 12                 1480 	ld	(de),a
                           1481 ; genPlus
                           1482 ; genPlusIncr
   04E0 11 D0 00           1483 	ld	de,#_gamesprites + 208
                           1484 ; genAssign (pointer)
   04E3 3E 00              1485 	ld	a,#0x00
   04E5 12                 1486 	ld	(de),a
                           1487 ; genPlus
                           1488 ; genPlusIncr
   04E6 11 D1 00           1489 	ld	de,#_gamesprites + 209
                           1490 ; genAssign (pointer)
   04E9 3E 00              1491 	ld	a,#0x00
   04EB 12                 1492 	ld	(de),a
                           1493 ; genPlus
                           1494 ; genPlusIncr
   04EC 11 D2 00           1495 	ld	de,#_gamesprites + 210
                           1496 ; genAssign (pointer)
   04EF 3E 00              1497 	ld	a,#0x00
   04F1 12                 1498 	ld	(de),a
                           1499 ; genPlus
                           1500 ; genPlusIncr
   04F2 11 D3 00           1501 	ld	de,#_gamesprites + 211
                           1502 ; genAssign (pointer)
   04F5 3E 00              1503 	ld	a,#0x00
   04F7 12                 1504 	ld	(de),a
                           1505 ; genPlus
                           1506 ; genPlusIncr
   04F8 11 D4 00           1507 	ld	de,#_gamesprites + 212
                           1508 ; genAssign (pointer)
   04FB 3E 00              1509 	ld	a,#0x00
   04FD 12                 1510 	ld	(de),a
                           1511 ; genPlus
                           1512 ; genPlusIncr
   04FE 11 D5 00           1513 	ld	de,#_gamesprites + 213
                           1514 ; genAssign (pointer)
   0501 3E C6              1515 	ld	a,#0xC6
   0503 12                 1516 	ld	(de),a
                           1517 ; genPlus
                           1518 ; genPlusIncr
   0504 11 D6 00           1519 	ld	de,#_gamesprites + 214
                           1520 ; genAssign (pointer)
   0507 3E 00              1521 	ld	a,#0x00
   0509 12                 1522 	ld	(de),a
                           1523 ; genPlus
                           1524 ; genPlusIncr
   050A 11 D7 00           1525 	ld	de,#_gamesprites + 215
                           1526 ; genAssign (pointer)
   050D 3E FF              1527 	ld	a,#0xFF
   050F 12                 1528 	ld	(de),a
                           1529 ; genPlus
                           1530 ; genPlusIncr
   0510 11 D8 00           1531 	ld	de,#_gamesprites + 216
                           1532 ; genAssign (pointer)
   0513 3E 00              1533 	ld	a,#0x00
   0515 12                 1534 	ld	(de),a
                           1535 ; genPlus
                           1536 ; genPlusIncr
   0516 11 D9 00           1537 	ld	de,#_gamesprites + 217
                           1538 ; genAssign (pointer)
   0519 3E FF              1539 	ld	a,#0xFF
   051B 12                 1540 	ld	(de),a
                           1541 ; genPlus
                           1542 ; genPlusIncr
   051C 11 DA 00           1543 	ld	de,#_gamesprites + 218
                           1544 ; genAssign (pointer)
   051F 3E 00              1545 	ld	a,#0x00
   0521 12                 1546 	ld	(de),a
                           1547 ; genPlus
                           1548 ; genPlusIncr
   0522 11 DB 00           1549 	ld	de,#_gamesprites + 219
                           1550 ; genAssign (pointer)
   0525 3E FF              1551 	ld	a,#0xFF
   0527 12                 1552 	ld	(de),a
                           1553 ; genPlus
                           1554 ; genPlusIncr
   0528 11 DC 00           1555 	ld	de,#_gamesprites + 220
                           1556 ; genAssign (pointer)
   052B 3E 00              1557 	ld	a,#0x00
   052D 12                 1558 	ld	(de),a
                           1559 ; genPlus
                           1560 ; genPlusIncr
   052E 11 DD 00           1561 	ld	de,#_gamesprites + 221
                           1562 ; genAssign (pointer)
   0531 3E FE              1563 	ld	a,#0xFE
   0533 12                 1564 	ld	(de),a
                           1565 ; genPlus
                           1566 ; genPlusIncr
   0534 11 DE 00           1567 	ld	de,#_gamesprites + 222
                           1568 ; genAssign (pointer)
   0537 3E 00              1569 	ld	a,#0x00
   0539 12                 1570 	ld	(de),a
                           1571 ; genPlus
                           1572 ; genPlusIncr
   053A 11 DF 00           1573 	ld	de,#_gamesprites + 223
                           1574 ; genAssign (pointer)
   053D 3E F8              1575 	ld	a,#0xF8
   053F 12                 1576 	ld	(de),a
                           1577 ; genPlus
                           1578 ; genPlusIncr
   0540 11 E0 00           1579 	ld	de,#_gamesprites + 224
                           1580 ; genAssign (pointer)
   0543 3E 00              1581 	ld	a,#0x00
   0545 12                 1582 	ld	(de),a
                           1583 ; genPlus
                           1584 ; genPlusIncr
   0546 11 E1 00           1585 	ld	de,#_gamesprites + 225
                           1586 ; genAssign (pointer)
   0549 3E 3F              1587 	ld	a,#0x3F
   054B 12                 1588 	ld	(de),a
                           1589 ; genPlus
                           1590 ; genPlusIncr
   054C 11 E2 00           1591 	ld	de,#_gamesprites + 226
                           1592 ; genAssign (pointer)
   054F 3E 00              1593 	ld	a,#0x00
   0551 12                 1594 	ld	(de),a
                           1595 ; genPlus
                           1596 ; genPlusIncr
   0552 11 E3 00           1597 	ld	de,#_gamesprites + 227
                           1598 ; genAssign (pointer)
   0555 3E 1F              1599 	ld	a,#0x1F
   0557 12                 1600 	ld	(de),a
                           1601 ; genPlus
                           1602 ; genPlusIncr
   0558 11 E4 00           1603 	ld	de,#_gamesprites + 228
                           1604 ; genAssign (pointer)
   055B 3E 00              1605 	ld	a,#0x00
   055D 12                 1606 	ld	(de),a
                           1607 ; genPlus
                           1608 ; genPlusIncr
   055E 11 E5 00           1609 	ld	de,#_gamesprites + 229
                           1610 ; genAssign (pointer)
   0561 3E 3F              1611 	ld	a,#0x3F
   0563 12                 1612 	ld	(de),a
                           1613 ; genPlus
                           1614 ; genPlusIncr
   0564 11 E6 00           1615 	ld	de,#_gamesprites + 230
                           1616 ; genAssign (pointer)
   0567 3E 00              1617 	ld	a,#0x00
   0569 12                 1618 	ld	(de),a
                           1619 ; genPlus
                           1620 ; genPlusIncr
   056A 11 E7 00           1621 	ld	de,#_gamesprites + 231
                           1622 ; genAssign (pointer)
   056D 3E 3F              1623 	ld	a,#0x3F
   056F 12                 1624 	ld	(de),a
                           1625 ; genPlus
                           1626 ; genPlusIncr
   0570 11 E8 00           1627 	ld	de,#_gamesprites + 232
                           1628 ; genAssign (pointer)
   0573 3E 00              1629 	ld	a,#0x00
   0575 12                 1630 	ld	(de),a
                           1631 ; genPlus
                           1632 ; genPlusIncr
   0576 11 E9 00           1633 	ld	de,#_gamesprites + 233
                           1634 ; genAssign (pointer)
   0579 3E 3F              1635 	ld	a,#0x3F
   057B 12                 1636 	ld	(de),a
                           1637 ; genPlus
                           1638 ; genPlusIncr
   057C 11 EA 00           1639 	ld	de,#_gamesprites + 234
                           1640 ; genAssign (pointer)
   057F 3E 00              1641 	ld	a,#0x00
   0581 12                 1642 	ld	(de),a
                           1643 ; genPlus
                           1644 ; genPlusIncr
   0582 11 EB 00           1645 	ld	de,#_gamesprites + 235
                           1646 ; genAssign (pointer)
   0585 3E 33              1647 	ld	a,#0x33
   0587 12                 1648 	ld	(de),a
                           1649 ; genPlus
                           1650 ; genPlusIncr
   0588 11 EC 00           1651 	ld	de,#_gamesprites + 236
                           1652 ; genAssign (pointer)
   058B 3E 00              1653 	ld	a,#0x00
   058D 12                 1654 	ld	(de),a
                           1655 ; genPlus
                           1656 ; genPlusIncr
   058E 11 ED 00           1657 	ld	de,#_gamesprites + 237
                           1658 ; genAssign (pointer)
   0591 3E 00              1659 	ld	a,#0x00
   0593 12                 1660 	ld	(de),a
                           1661 ; genPlus
                           1662 ; genPlusIncr
   0594 11 EE 00           1663 	ld	de,#_gamesprites + 238
                           1664 ; genAssign (pointer)
   0597 3E 00              1665 	ld	a,#0x00
   0599 12                 1666 	ld	(de),a
                           1667 ; genPlus
                           1668 ; genPlusIncr
   059A 11 EF 00           1669 	ld	de,#_gamesprites + 239
                           1670 ; genAssign (pointer)
   059D 3E 00              1671 	ld	a,#0x00
   059F 12                 1672 	ld	(de),a
                           1673 ; genPlus
                           1674 ; genPlusIncr
   05A0 11 F0 00           1675 	ld	de,#_gamesprites + 240
                           1676 ; genAssign (pointer)
   05A3 3E 00              1677 	ld	a,#0x00
   05A5 12                 1678 	ld	(de),a
                           1679 ; genPlus
                           1680 ; genPlusIncr
   05A6 11 F1 00           1681 	ld	de,#_gamesprites + 241
                           1682 ; genAssign (pointer)
   05A9 3E FC              1683 	ld	a,#0xFC
   05AB 12                 1684 	ld	(de),a
                           1685 ; genPlus
                           1686 ; genPlusIncr
   05AC 11 F2 00           1687 	ld	de,#_gamesprites + 242
                           1688 ; genAssign (pointer)
   05AF 3E 00              1689 	ld	a,#0x00
   05B1 12                 1690 	ld	(de),a
                           1691 ; genPlus
                           1692 ; genPlusIncr
   05B2 11 F3 00           1693 	ld	de,#_gamesprites + 243
                           1694 ; genAssign (pointer)
   05B5 3E FC              1695 	ld	a,#0xFC
   05B7 12                 1696 	ld	(de),a
                           1697 ; genPlus
                           1698 ; genPlusIncr
   05B8 11 F4 00           1699 	ld	de,#_gamesprites + 244
                           1700 ; genAssign (pointer)
   05BB 3E 00              1701 	ld	a,#0x00
   05BD 12                 1702 	ld	(de),a
                           1703 ; genPlus
                           1704 ; genPlusIncr
   05BE 11 F5 00           1705 	ld	de,#_gamesprites + 245
                           1706 ; genAssign (pointer)
   05C1 3E FC              1707 	ld	a,#0xFC
   05C3 12                 1708 	ld	(de),a
                           1709 ; genPlus
                           1710 ; genPlusIncr
   05C4 11 F6 00           1711 	ld	de,#_gamesprites + 246
                           1712 ; genAssign (pointer)
   05C7 3E 00              1713 	ld	a,#0x00
   05C9 12                 1714 	ld	(de),a
                           1715 ; genPlus
                           1716 ; genPlusIncr
   05CA 11 F7 00           1717 	ld	de,#_gamesprites + 247
                           1718 ; genAssign (pointer)
   05CD 3E FC              1719 	ld	a,#0xFC
   05CF 12                 1720 	ld	(de),a
                           1721 ; genPlus
                           1722 ; genPlusIncr
   05D0 11 F8 00           1723 	ld	de,#_gamesprites + 248
                           1724 ; genAssign (pointer)
   05D3 3E 00              1725 	ld	a,#0x00
   05D5 12                 1726 	ld	(de),a
                           1727 ; genPlus
                           1728 ; genPlusIncr
   05D6 11 F9 00           1729 	ld	de,#_gamesprites + 249
                           1730 ; genAssign (pointer)
   05D9 3E FC              1731 	ld	a,#0xFC
   05DB 12                 1732 	ld	(de),a
                           1733 ; genPlus
                           1734 ; genPlusIncr
   05DC 11 FA 00           1735 	ld	de,#_gamesprites + 250
                           1736 ; genAssign (pointer)
   05DF 3E 00              1737 	ld	a,#0x00
   05E1 12                 1738 	ld	(de),a
                           1739 ; genPlus
                           1740 ; genPlusIncr
   05E2 11 FB 00           1741 	ld	de,#_gamesprites + 251
                           1742 ; genAssign (pointer)
   05E5 3E FC              1743 	ld	a,#0xFC
   05E7 12                 1744 	ld	(de),a
                           1745 ; genPlus
                           1746 ; genPlusIncr
   05E8 11 FC 00           1747 	ld	de,#_gamesprites + 252
                           1748 ; genAssign (pointer)
   05EB 3E 00              1749 	ld	a,#0x00
   05ED 12                 1750 	ld	(de),a
                           1751 ; genPlus
                           1752 ; genPlusIncr
   05EE 11 FD 00           1753 	ld	de,#_gamesprites + 253
                           1754 ; genAssign (pointer)
   05F1 3E F0              1755 	ld	a,#0xF0
   05F3 12                 1756 	ld	(de),a
                           1757 ; genPlus
                           1758 ; genPlusIncr
   05F4 11 FE 00           1759 	ld	de,#_gamesprites + 254
                           1760 ; genAssign (pointer)
   05F7 3E 00              1761 	ld	a,#0x00
   05F9 12                 1762 	ld	(de),a
                           1763 ; genPlus
                           1764 ; genPlusIncr
   05FA 11 FF 00           1765 	ld	de,#_gamesprites + 255
                           1766 ; genAssign (pointer)
   05FD 3E 00              1767 	ld	a,#0x00
   05FF 12                 1768 	ld	(de),a
                           1769 ;	main.c 368
                           1770 ; genAssign
                           1771 ; AOP_HL for _spritesize
   0600 21 0A 01           1772 	ld	hl,#_spritesize + 0
   0603 36 08              1773 	ld	(hl),#0x08
                           1774 ;	main.c 368
                           1775 ; genAssign (pointer)
   0605 11 2B 01           1776 	ld	de,#_asteroidsSpawnX + 0
   0608 3E 00              1777 	ld	a,#0x00
   060A 12                 1778 	ld	(de),a
   060B 13                 1779 	inc	de
   060C 3E 00              1780 	ld	a,#0x00
   060E 12                 1781 	ld	(de),a
                           1782 ; genPlus
                           1783 ; genPlusIncr
   060F 11 2D 01           1784 	ld	de,#_asteroidsSpawnX + 2
                           1785 ; genAssign (pointer)
   0612 3E 14              1786 	ld	a,#0x14
   0614 12                 1787 	ld	(de),a
   0615 13                 1788 	inc	de
   0616 3E 00              1789 	ld	a,#0x00
   0618 12                 1790 	ld	(de),a
                           1791 ; genPlus
                           1792 ; genPlusIncr
   0619 11 2F 01           1793 	ld	de,#_asteroidsSpawnX + 4
                           1794 ; genAssign (pointer)
   061C 3E 32              1795 	ld	a,#0x32
   061E 12                 1796 	ld	(de),a
   061F 13                 1797 	inc	de
   0620 3E 00              1798 	ld	a,#0x00
   0622 12                 1799 	ld	(de),a
                           1800 ; genPlus
                           1801 ; genPlusIncr
   0623 11 31 01           1802 	ld	de,#_asteroidsSpawnX + 6
                           1803 ; genAssign (pointer)
   0626 3E 46              1804 	ld	a,#0x46
   0628 12                 1805 	ld	(de),a
   0629 13                 1806 	inc	de
   062A 3E 00              1807 	ld	a,#0x00
   062C 12                 1808 	ld	(de),a
                           1809 ; genPlus
                           1810 ; genPlusIncr
   062D 11 33 01           1811 	ld	de,#_asteroidsSpawnX + 8
                           1812 ; genAssign (pointer)
   0630 3E 78              1813 	ld	a,#0x78
   0632 12                 1814 	ld	(de),a
   0633 13                 1815 	inc	de
   0634 3E 00              1816 	ld	a,#0x00
   0636 12                 1817 	ld	(de),a
                           1818 ; genPlus
                           1819 ; genPlusIncr
   0637 11 35 01           1820 	ld	de,#_asteroidsSpawnX + 10
                           1821 ; genAssign (pointer)
   063A 3E 8C              1822 	ld	a,#0x8C
   063C 12                 1823 	ld	(de),a
   063D 13                 1824 	inc	de
   063E 3E 00              1825 	ld	a,#0x00
   0640 12                 1826 	ld	(de),a
                           1827 ; genPlus
                           1828 ; genPlusIncr
   0641 11 37 01           1829 	ld	de,#_asteroidsSpawnX + 12
                           1830 ; genAssign (pointer)
   0644 3E 1E              1831 	ld	a,#0x1E
   0646 12                 1832 	ld	(de),a
   0647 13                 1833 	inc	de
   0648 3E 00              1834 	ld	a,#0x00
   064A 12                 1835 	ld	(de),a
                           1836 ; genPlus
                           1837 ; genPlusIncr
   064B 11 39 01           1838 	ld	de,#_asteroidsSpawnX + 14
                           1839 ; genAssign (pointer)
   064E 3E 28              1840 	ld	a,#0x28
   0650 12                 1841 	ld	(de),a
   0651 13                 1842 	inc	de
   0652 3E 00              1843 	ld	a,#0x00
   0654 12                 1844 	ld	(de),a
                           1845 ; genPlus
                           1846 ; genPlusIncr
   0655 11 3B 01           1847 	ld	de,#_asteroidsSpawnX + 16
                           1848 ; genAssign (pointer)
   0658 3E 3C              1849 	ld	a,#0x3C
   065A 12                 1850 	ld	(de),a
   065B 13                 1851 	inc	de
   065C 3E 00              1852 	ld	a,#0x00
   065E 12                 1853 	ld	(de),a
                           1854 ; genPlus
                           1855 ; genPlusIncr
   065F 11 3D 01           1856 	ld	de,#_asteroidsSpawnX + 18
                           1857 ; genAssign (pointer)
   0662 3E 50              1858 	ld	a,#0x50
   0664 12                 1859 	ld	(de),a
   0665 13                 1860 	inc	de
   0666 3E 00              1861 	ld	a,#0x00
   0668 12                 1862 	ld	(de),a
                           1863 ; genPlus
                           1864 ; genPlusIncr
   0669 11 3F 01           1865 	ld	de,#_asteroidsSpawnX + 20
                           1866 ; genAssign (pointer)
   066C 3E 5A              1867 	ld	a,#0x5A
   066E 12                 1868 	ld	(de),a
   066F 13                 1869 	inc	de
   0670 3E 00              1870 	ld	a,#0x00
   0672 12                 1871 	ld	(de),a
                           1872 ; genPlus
                           1873 ; genPlusIncr
   0673 11 41 01           1874 	ld	de,#_asteroidsSpawnX + 22
                           1875 ; genAssign (pointer)
   0676 3E 14              1876 	ld	a,#0x14
   0678 12                 1877 	ld	(de),a
   0679 13                 1878 	inc	de
   067A 3E 00              1879 	ld	a,#0x00
   067C 12                 1880 	ld	(de),a
                           1881 ; genPlus
                           1882 ; genPlusIncr
   067D 11 43 01           1883 	ld	de,#_asteroidsSpawnX + 24
                           1884 ; genAssign (pointer)
   0680 3E 64              1885 	ld	a,#0x64
   0682 12                 1886 	ld	(de),a
   0683 13                 1887 	inc	de
   0684 3E 00              1888 	ld	a,#0x00
   0686 12                 1889 	ld	(de),a
                           1890 ; genPlus
                           1891 ; genPlusIncr
   0687 11 45 01           1892 	ld	de,#_asteroidsSpawnX + 26
                           1893 ; genAssign (pointer)
   068A 3E 0A              1894 	ld	a,#0x0A
   068C 12                 1895 	ld	(de),a
   068D 13                 1896 	inc	de
   068E 3E 00              1897 	ld	a,#0x00
   0690 12                 1898 	ld	(de),a
                           1899 ; genPlus
                           1900 ; genPlusIncr
   0691 11 47 01           1901 	ld	de,#_asteroidsSpawnX + 28
                           1902 ; genAssign (pointer)
   0694 3E 32              1903 	ld	a,#0x32
   0696 12                 1904 	ld	(de),a
   0697 13                 1905 	inc	de
   0698 3E 00              1906 	ld	a,#0x00
   069A 12                 1907 	ld	(de),a
                           1908 ; genPlus
                           1909 ; genPlusIncr
   069B 11 49 01           1910 	ld	de,#_asteroidsSpawnX + 30
                           1911 ; genAssign (pointer)
   069E 3E 0A              1912 	ld	a,#0x0A
   06A0 12                 1913 	ld	(de),a
   06A1 13                 1914 	inc	de
   06A2 3E 00              1915 	ld	a,#0x00
   06A4 12                 1916 	ld	(de),a
                           1917 ;	main.c 368
                           1918 ; genAssign
                           1919 ; AOP_HL for _asteroidsSpawnXCount
   06A5 21 4B 01           1920 	ld	hl,#_asteroidsSpawnXCount + 0
   06A8 36 10              1921 	ld	(hl),#0x10
   06AA 21 4C 01           1922 	ld	hl,#_asteroidsSpawnXCount + 1
   06AD 36 00              1923 	ld	(hl),#0x00
                           1924 ;	main.c 368
                           1925 ; genAssign
                           1926 ; AOP_HL for _HP
   06AF 21 4F 01           1927 	ld	hl,#_HP + 0
   06B2 36 03              1928 	ld	(hl),#0x03
   06B4 21 50 01           1929 	ld	hl,#_HP + 1
   06B7 36 00              1930 	ld	(hl),#0x00
                           1931 ;	main.c 368
                           1932 ; genAssign
                           1933 ; AOP_HL for _IsGameOver
   06B9 21 51 01           1934 	ld	hl,#_IsGameOver + 0
   06BC 36 00              1935 	ld	(hl),#0x00
                           1936 ;	main.c 368
                           1937 ; genAssign
                           1938 ; AOP_HL for _Hight
   06BE 21 52 01           1939 	ld	hl,#_Hight + 0
   06C1 36 00              1940 	ld	(hl),#0x00
   06C3 21 53 01           1941 	ld	hl,#_Hight + 1
   06C6 36 00              1942 	ld	(hl),#0x00
                           1943 ;--------------------------------------------------------
                           1944 ; code
                           1945 ;--------------------------------------------------------
                           1946 	.area _CODE
                           1947 ;	main.c 29
                           1948 ; genLabel
                           1949 ; genFunction
                           1950 ;	---------------------------------
                           1951 ; Function checkCollisions
                           1952 ; ---------------------------------
   0000                    1953 ___checkCollisions_start:
   0000                    1954 _checkCollisions:
   0000 C5                 1955 	push	bc
   0001 E8 F7              1956 	lda sp,-9(sp)
                           1957 ;	main.c 31
                           1958 ; genAssign
                           1959 ; AOP_STK for 
                           1960 ; AOP_STK for _checkCollisions_sloc0_1_0
   0003 F8 0D              1961 	lda	hl,13(sp)
   0005 2A                 1962 	ld	a,(hl+)
   0006 5E                 1963 	ld	e,(hl)
   0007 F8 07              1964 	lda	hl,7(sp)
   0009 77                 1965 	ld	(hl),a ; 3
   000A 23                 1966 	inc	hl
   000B 73                 1967 	ld	(hl),e ; 3
                           1968 ; genPlus
                           1969 ; AOP_STK for _checkCollisions_sloc0_1_0
                           1970 ; genPlusIncr
   000C 2B                 1971 	dec	hl
   000D 7E                 1972 	ld	a,(hl)
   000E C6 04              1973 	add	a,#0x04
   0010 5F                 1974 	ld	e,a
   0011 23                 1975 	inc	hl
   0012 7E                 1976 	ld	a,(hl)
   0013 CE 00              1977 	adc	a,#0x00
   0015 57                 1978 	ld	d,a
                           1979 ; genPointerGet
                           1980 ; AOP_STK for _checkCollisions_sloc1_1_0
   0016 1A                 1981 	ld	a,(de)
   0017 2B                 1982 	dec	hl
   0018 2B                 1983 	dec	hl
   0019 77                 1984 	ld	(hl),a ; 3
                           1985 ; genAssign
                           1986 ; AOP_STK for 
                           1987 ; AOP_STK for _checkCollisions_sloc2_1_0
   001A F8 0F              1988 	lda	hl,15(sp)
   001C 2A                 1989 	ld	a,(hl+)
   001D 5E                 1990 	ld	e,(hl)
   001E F8 04              1991 	lda	hl,4(sp)
   0020 77                 1992 	ld	(hl),a ; 3
   0021 23                 1993 	inc	hl
   0022 73                 1994 	ld	(hl),e ; 3
                           1995 ; genPlus
                           1996 ; AOP_STK for _checkCollisions_sloc2_1_0
                           1997 ; genPlusIncr
   0023 2B                 1998 	dec	hl
   0024 7E                 1999 	ld	a,(hl)
   0025 C6 04              2000 	add	a,#0x04
   0027 5F                 2001 	ld	e,a
   0028 23                 2002 	inc	hl
   0029 7E                 2003 	ld	a,(hl)
   002A CE 00              2004 	adc	a,#0x00
   002C 57                 2005 	ld	d,a
                           2006 ; genPointerGet
                           2007 ; AOP_STK for _checkCollisions_sloc5_1_0
   002D 1A                 2008 	ld	a,(de)
   002E F8 01              2009 	lda	hl,1(sp)
   0030 77                 2010 	ld	(hl),a ; 3
                           2011 ; genCmpLt
                           2012 ; AOP_STK for _checkCollisions_sloc1_1_0
                           2013 ; AOP_STK for _checkCollisions_sloc5_1_0
   0031 AF                 2014 	xor	a,a
   0032 F8 06              2015 	lda	hl,6(sp)
   0034 7E                 2016 	ld	a,(hl)
   0035 F8 01              2017 	lda	hl,1(sp)
   0037 9E                 2018 	sbc	a,(hl) ; 2
   0038 3E 00              2019 	ld	a,#0x00
   003A 17                 2020 	rla
   003B 47                 2021 	ld	b,a
                           2022 ; genNot
                           2023 ; AOP_STK for _checkCollisions_sloc3_1_0
   003C AF                 2024 	xor	a,a
   003D B0                 2025 	or	a,b
   003E D6 01              2026 	sub	a,#0x01
   0040 3E 00              2027 	ld	a,#0x00
   0042 17                 2028 	rla
   0043 23                 2029 	inc	hl
   0044 23                 2030 	inc	hl
   0045 77                 2031 	ld	(hl),a ; 3
                           2032 ; genPlus
                           2033 ; AOP_STK for _checkCollisions_sloc2_1_0
                           2034 ; genPlusIncr
   0046 23                 2035 	inc	hl
   0047 7E                 2036 	ld	a,(hl)
   0048 C6 06              2037 	add	a,#0x06
   004A 5F                 2038 	ld	e,a
   004B 23                 2039 	inc	hl
   004C 7E                 2040 	ld	a,(hl)
   004D CE 00              2041 	adc	a,#0x00
   004F 57                 2042 	ld	d,a
                           2043 ; genPointerGet
   0050 1A                 2044 	ld	a,(de)
                           2045 ; genPlus
                           2046 ; AOP_STK for _checkCollisions_sloc5_1_0
   0051 F8 01              2047 	lda	hl,1(sp)
   0053 86                 2048 	add	a,(hl)
   0054 47                 2049 	ld	b,a
                           2050 ; genCmpGt
                           2051 ; AOP_STK for _checkCollisions_sloc1_1_0
   0055 AF                 2052 	xor	a,a
   0056 78                 2053 	ld	a,b
   0057 F8 06              2054 	lda	hl,6(sp)
   0059 9E                 2055 	sbc	a,(hl) ; 2
   005A 3E 00              2056 	ld	a,#0x00
   005C 17                 2057 	rla
   005D 47                 2058 	ld	b,a
                           2059 ; genNot
   005E AF                 2060 	xor	a,a
   005F B0                 2061 	or	a,b
   0060 D6 01              2062 	sub	a,#0x01
   0062 3E 00              2063 	ld	a,#0x00
   0064 17                 2064 	rla
   0065 47                 2065 	ld	b,a
                           2066 ; genAndOp
                           2067 ; AOP_STK for _checkCollisions_sloc3_1_0
   0066 AF                 2068 	xor	a,a
   0067 F8 03              2069 	lda	hl,3(sp)
   0069 B6                 2070 	or	a,(hl)
   006A 28 02              2071 	jr	z,00103$
   006C AF                 2072 	xor	a,a
   006D B0                 2073 	or	a,b
   006E                    2074 00103$:
   006E 28 02              2075 	jr	z,00104$
   0070 3E 01              2076 	ld	a,#0x01
   0072                    2077 00104$:
   0072 F8 03              2078 	lda	hl,3(sp)
   0074 77                 2079 	ld	(hl),a ; 3
                           2080 ;	main.c 32
                           2081 ; genPlus
                           2082 ; AOP_STK for _checkCollisions_sloc0_1_0
                           2083 ; genPlusIncr
   0075 F8 07              2084 	lda	hl,7(sp)
   0077 7E                 2085 	ld	a,(hl)
   0078 C6 05              2086 	add	a,#0x05
   007A 5F                 2087 	ld	e,a
   007B 23                 2088 	inc	hl
   007C 7E                 2089 	ld	a,(hl)
   007D CE 00              2090 	adc	a,#0x00
   007F 57                 2091 	ld	d,a
                           2092 ; genPointerGet
                           2093 ; AOP_STK for _checkCollisions_sloc4_1_0
   0080 1A                 2094 	ld	a,(de)
   0081 F8 02              2095 	lda	hl,2(sp)
   0083 77                 2096 	ld	(hl),a ; 3
                           2097 ; genPlus
                           2098 ; AOP_STK for _checkCollisions_sloc2_1_0
                           2099 ; genPlusIncr
   0084 23                 2100 	inc	hl
   0085 23                 2101 	inc	hl
   0086 7E                 2102 	ld	a,(hl)
   0087 C6 05              2103 	add	a,#0x05
   0089 5F                 2104 	ld	e,a
   008A 23                 2105 	inc	hl
   008B 7E                 2106 	ld	a,(hl)
   008C CE 00              2107 	adc	a,#0x00
   008E 57                 2108 	ld	d,a
                           2109 ; genPointerGet
   008F 1A                 2110 	ld	a,(de)
   0090 47                 2111 	ld	b,a
                           2112 ; genCmpLt
                           2113 ; AOP_STK for _checkCollisions_sloc4_1_0
   0091 AF                 2114 	xor	a,a
   0092 F8 02              2115 	lda	hl,2(sp)
   0094 7E                 2116 	ld	a,(hl)
   0095 98                 2117 	sbc	a,b ; 2
   0096 3E 00              2118 	ld	a,#0x00
   0098 17                 2119 	rla
   0099 4F                 2120 	ld	c,a
                           2121 ; genNot
                           2122 ; AOP_STK for _checkCollisions_sloc6_1_0
   009A AF                 2123 	xor	a,a
   009B B1                 2124 	or	a,c
   009C D6 01              2125 	sub	a,#0x01
   009E 3E 00              2126 	ld	a,#0x00
   00A0 17                 2127 	rla
   00A1 2B                 2128 	dec	hl
   00A2 2B                 2129 	dec	hl
   00A3 77                 2130 	ld	(hl),a ; 3
                           2131 ; genPlus
                           2132 ; AOP_STK for _checkCollisions_sloc2_1_0
                           2133 ; genPlusIncr
   00A4 F8 04              2134 	lda	hl,4(sp)
   00A6 7E                 2135 	ld	a,(hl)
   00A7 C6 07              2136 	add	a,#0x07
   00A9 5F                 2137 	ld	e,a
   00AA 23                 2138 	inc	hl
   00AB 7E                 2139 	ld	a,(hl)
   00AC CE 00              2140 	adc	a,#0x00
   00AE 57                 2141 	ld	d,a
                           2142 ; genPointerGet
   00AF 1A                 2143 	ld	a,(de)
                           2144 ; genPlus
   00B0 80                 2145 	add	a,b
   00B1 4F                 2146 	ld	c,a
                           2147 ; genCmpGt
                           2148 ; AOP_STK for _checkCollisions_sloc4_1_0
   00B2 AF                 2149 	xor	a,a
   00B3 79                 2150 	ld	a,c
   00B4 F8 02              2151 	lda	hl,2(sp)
   00B6 9E                 2152 	sbc	a,(hl) ; 2
   00B7 3E 00              2153 	ld	a,#0x00
   00B9 17                 2154 	rla
   00BA 4F                 2155 	ld	c,a
                           2156 ; genNot
   00BB AF                 2157 	xor	a,a
   00BC B1                 2158 	or	a,c
   00BD D6 01              2159 	sub	a,#0x01
   00BF 3E 00              2160 	ld	a,#0x00
   00C1 17                 2161 	rla
   00C2 4F                 2162 	ld	c,a
                           2163 ; genAndOp
                           2164 ; AOP_STK for _checkCollisions_sloc6_1_0
   00C3 AF                 2165 	xor	a,a
   00C4 2B                 2166 	dec	hl
   00C5 2B                 2167 	dec	hl
   00C6 B6                 2168 	or	a,(hl)
   00C7 28 02              2169 	jr	z,00105$
   00C9 AF                 2170 	xor	a,a
   00CA B1                 2171 	or	a,c
   00CB                    2172 00105$:
   00CB 28 02              2173 	jr	z,00106$
   00CD 3E 01              2174 	ld	a,#0x01
   00CF                    2175 00106$:
   00CF 4F                 2176 	ld	c,a
                           2177 ; genAndOp
                           2178 ; AOP_STK for _checkCollisions_sloc3_1_0
                           2179 ; AOP_STK for _checkCollisions_sloc6_1_0
   00D0 AF                 2180 	xor	a,a
   00D1 F8 03              2181 	lda	hl,3(sp)
   00D3 B6                 2182 	or	a,(hl)
   00D4 28 02              2183 	jr	z,00107$
   00D6 AF                 2184 	xor	a,a
   00D7 B1                 2185 	or	a,c
   00D8                    2186 00107$:
   00D8 28 02              2187 	jr	z,00108$
   00DA 3E 01              2188 	ld	a,#0x01
   00DC                    2189 00108$:
   00DC F8 00              2190 	lda	hl,0(sp)
   00DE 77                 2191 	ld	(hl),a ; 3
                           2192 ;	main.c 33
                           2193 ; genCmpLt
                           2194 ; AOP_STK for _checkCollisions_sloc5_1_0
                           2195 ; AOP_STK for _checkCollisions_sloc1_1_0
   00DF AF                 2196 	xor	a,a
   00E0 23                 2197 	inc	hl
   00E1 7E                 2198 	ld	a,(hl)
   00E2 F8 06              2199 	lda	hl,6(sp)
   00E4 9E                 2200 	sbc	a,(hl) ; 2
   00E5 3E 00              2201 	ld	a,#0x00
   00E7 17                 2202 	rla
   00E8 4F                 2203 	ld	c,a
                           2204 ; genNot
                           2205 ; AOP_STK for _checkCollisions_sloc3_1_0
   00E9 AF                 2206 	xor	a,a
   00EA B1                 2207 	or	a,c
   00EB D6 01              2208 	sub	a,#0x01
   00ED 3E 00              2209 	ld	a,#0x00
   00EF 17                 2210 	rla
   00F0 F8 03              2211 	lda	hl,3(sp)
   00F2 77                 2212 	ld	(hl),a ; 3
                           2213 ; genPlus
                           2214 ; AOP_STK for _checkCollisions_sloc0_1_0
                           2215 ; genPlusIncr
   00F3 F8 07              2216 	lda	hl,7(sp)
   00F5 7E                 2217 	ld	a,(hl)
   00F6 C6 06              2218 	add	a,#0x06
   00F8 5F                 2219 	ld	e,a
   00F9 23                 2220 	inc	hl
   00FA 7E                 2221 	ld	a,(hl)
   00FB CE 00              2222 	adc	a,#0x00
   00FD 57                 2223 	ld	d,a
                           2224 ; genPointerGet
   00FE 1A                 2225 	ld	a,(de)
                           2226 ; genPlus
                           2227 ; AOP_STK for _checkCollisions_sloc1_1_0
   00FF 2B                 2228 	dec	hl
   0100 2B                 2229 	dec	hl
   0101 86                 2230 	add	a,(hl)
   0102 4F                 2231 	ld	c,a
                           2232 ; genCmpGt
                           2233 ; AOP_STK for _checkCollisions_sloc5_1_0
   0103 AF                 2234 	xor	a,a
   0104 79                 2235 	ld	a,c
   0105 F8 01              2236 	lda	hl,1(sp)
   0107 9E                 2237 	sbc	a,(hl) ; 2
   0108 3E 00              2238 	ld	a,#0x00
   010A 17                 2239 	rla
   010B 4F                 2240 	ld	c,a
                           2241 ; genNot
   010C AF                 2242 	xor	a,a
   010D B1                 2243 	or	a,c
   010E D6 01              2244 	sub	a,#0x01
   0110 3E 00              2245 	ld	a,#0x00
   0112 17                 2246 	rla
   0113 4F                 2247 	ld	c,a
                           2248 ; genAndOp
                           2249 ; AOP_STK for _checkCollisions_sloc3_1_0
                           2250 ; AOP_STK for _checkCollisions_sloc5_1_0
   0114 AF                 2251 	xor	a,a
   0115 23                 2252 	inc	hl
   0116 23                 2253 	inc	hl
   0117 B6                 2254 	or	a,(hl)
   0118 28 02              2255 	jr	z,00109$
   011A AF                 2256 	xor	a,a
   011B B1                 2257 	or	a,c
   011C                    2258 00109$:
   011C 28 02              2259 	jr	z,00110$
   011E 3E 01              2260 	ld	a,#0x01
   0120                    2261 00110$:
   0120 F8 01              2262 	lda	hl,1(sp)
   0122 77                 2263 	ld	(hl),a ; 3
                           2264 ;	main.c 34
                           2265 ; genCmpLt
                           2266 ; AOP_STK for _checkCollisions_sloc4_1_0
   0123 AF                 2267 	xor	a,a
   0124 78                 2268 	ld	a,b
   0125 23                 2269 	inc	hl
   0126 9E                 2270 	sbc	a,(hl) ; 2
   0127 3E 00              2271 	ld	a,#0x00
   0129 17                 2272 	rla
   012A 4F                 2273 	ld	c,a
                           2274 ; genNot
                           2275 ; AOP_STK for _checkCollisions_sloc3_1_0
   012B AF                 2276 	xor	a,a
   012C B1                 2277 	or	a,c
   012D D6 01              2278 	sub	a,#0x01
   012F 3E 00              2279 	ld	a,#0x00
   0131 17                 2280 	rla
   0132 23                 2281 	inc	hl
   0133 77                 2282 	ld	(hl),a ; 3
                           2283 ; genPlus
                           2284 ; AOP_STK for _checkCollisions_sloc0_1_0
                           2285 ; genPlusIncr
   0134 F8 07              2286 	lda	hl,7(sp)
   0136 7E                 2287 	ld	a,(hl)
   0137 C6 07              2288 	add	a,#0x07
   0139 5F                 2289 	ld	e,a
   013A 23                 2290 	inc	hl
   013B 7E                 2291 	ld	a,(hl)
   013C CE 00              2292 	adc	a,#0x00
   013E 57                 2293 	ld	d,a
                           2294 ; genPointerGet
   013F 1A                 2295 	ld	a,(de)
                           2296 ; genPlus
                           2297 ; AOP_STK for _checkCollisions_sloc4_1_0
   0140 F8 02              2298 	lda	hl,2(sp)
   0142 86                 2299 	add	a,(hl)
   0143 4F                 2300 	ld	c,a
                           2301 ; genCmpGt
   0144 AF                 2302 	xor	a,a
   0145 79                 2303 	ld	a,c
   0146 98                 2304 	sbc	a,b ; 2
   0147 3E 00              2305 	ld	a,#0x00
   0149 17                 2306 	rla
   014A 47                 2307 	ld	b,a
                           2308 ; genNot
   014B AF                 2309 	xor	a,a
   014C B0                 2310 	or	a,b
   014D D6 01              2311 	sub	a,#0x01
   014F 3E 00              2312 	ld	a,#0x00
   0151 17                 2313 	rla
   0152 47                 2314 	ld	b,a
                           2315 ; genAndOp
                           2316 ; AOP_STK for _checkCollisions_sloc3_1_0
   0153 AF                 2317 	xor	a,a
   0154 23                 2318 	inc	hl
   0155 B6                 2319 	or	a,(hl)
   0156 28 02              2320 	jr	z,00111$
   0158 AF                 2321 	xor	a,a
   0159 B0                 2322 	or	a,b
   015A                    2323 00111$:
   015A 28 02              2324 	jr	z,00112$
   015C 3E 01              2325 	ld	a,#0x01
   015E                    2326 00112$:
   015E 47                 2327 	ld	b,a
                           2328 ; genAndOp
                           2329 ; AOP_STK for _checkCollisions_sloc5_1_0
   015F AF                 2330 	xor	a,a
   0160 F8 01              2331 	lda	hl,1(sp)
   0162 B6                 2332 	or	a,(hl)
   0163 28 02              2333 	jr	z,00113$
   0165 AF                 2334 	xor	a,a
   0166 B0                 2335 	or	a,b
   0167                    2336 00113$:
   0167 28 02              2337 	jr	z,00114$
   0169 3E 01              2338 	ld	a,#0x01
   016B                    2339 00114$:
   016B 47                 2340 	ld	b,a
                           2341 ; genOrOp
                           2342 ; AOP_STK for _checkCollisions_sloc6_1_0
   016C AF                 2343 	xor	a,a
   016D F8 00              2344 	lda	hl,0(sp)
   016F B6                 2345 	or	a,(hl)
   0170 20 02              2346 	jr	nz,00115$
   0172 AF                 2347 	xor	a,a
   0173 B0                 2348 	or	a,b
   0174                    2349 00115$:
   0174 28 02              2350 	jr	z,00116$
   0176 3E 01              2351 	ld	a,#0x01
   0178                    2352 00116$:
   0178 47                 2353 	ld	b,a
                           2354 ; genRet
   0179 58                 2355 	ld	e,b
                           2356 ; genLabel
   017A                    2357 00101$:
                           2358 ; genEndFunction
   017A E8 09              2359 	lda	sp,9(sp)
   017C C1                 2360 	pop bc
   017D C9                 2361 	ret
   017E                    2362 ___checkCollisions_end:
                           2363 ;	main.c 40
                           2364 ; genLabel
                           2365 ; genFunction
                           2366 ;	---------------------------------
                           2367 ; Function performantdelay
                           2368 ; ---------------------------------
   017E                    2369 ___performantdelay_start:
   017E                    2370 _performantdelay:
   017E C5                 2371 	push	bc
                           2372 ;	main.c 43
                           2373 ; genAssign
   017F 0E 00              2374 	ld	c,#0x00
                           2375 ; genLabel
   0181                    2376 00101$:
                           2377 ; genCmpLt
                           2378 ; AOP_STK for 
   0181 AF                 2379 	xor	a,a
   0182 79                 2380 	ld	a,c
   0183 F8 04              2381 	lda	hl,4(sp)
   0185 9E                 2382 	sbc	a,(hl) ; 2
   0186 D2 90 01           2383 	jp	nc,00105$
                           2384 ;	main.c 45
                           2385 ; genCall
   0189 CD 00 00           2386 	call	_wait_vbl_done
                           2387 ;	main.c 43
                           2388 ; genPlus
                           2389 ; genPlusIncr
   018C 0C                 2390 	inc	c
                           2391 ; genGoto
   018D C3 81 01           2392 	jp	00101$
                           2393 ; genLabel
   0190                    2394 00105$:
                           2395 ; genEndFunction
   0190 C1                 2396 	pop	bc
   0191 C9                 2397 	ret
   0192                    2398 ___performantdelay_end:
                           2399 ;	main.c 52
                           2400 ; genLabel
                           2401 ; genFunction
                           2402 ;	---------------------------------
                           2403 ; Function movegamecharacter
                           2404 ; ---------------------------------
   0192                    2405 ___movegamecharacter_start:
   0192                    2406 _movegamecharacter:
   0192 C5                 2407 	push	bc
   0193 E8 FD              2408 	lda sp,-3(sp)
                           2409 ;	main.c 54
                           2410 ; genAssign
                           2411 ; AOP_STK for 
                           2412 ; AOP_STK for _movegamecharacter_sloc1_1_0
   0195 F8 07              2413 	lda	hl,7(sp)
   0197 2A                 2414 	ld	a,(hl+)
   0198 5E                 2415 	ld	e,(hl)
   0199 F8 00              2416 	lda	hl,0(sp)
   019B 77                 2417 	ld	(hl),a ; 3
   019C 23                 2418 	inc	hl
   019D 73                 2419 	ld	(hl),e ; 3
                           2420 ; genPointerGet
                           2421 ; AOP_STK for _movegamecharacter_sloc1_1_0
                           2422 ; AOP_STK for _movegamecharacter_sloc0_1_0
   019E 2B                 2423 	dec	hl
   019F 5E                 2424 	ld	e,(hl)
   01A0 23                 2425 	inc	hl
   01A1 56                 2426 	ld	d,(hl)
   01A2 1A                 2427 	ld	a,(de)
   01A3 23                 2428 	inc	hl
   01A4 77                 2429 	ld	(hl),a ; 3
                           2430 ; genIpush
                           2431 ; AOP_STK for 
   01A5 F8 0A              2432 	lda	hl,10(sp)
   01A7 7E                 2433 	ld	a,(hl)
   01A8 F5                 2434 	push	af
   01A9 33                 2435 	inc	sp
                           2436 ; genIpush
                           2437 ; AOP_STK for 
   01AA 2B                 2438 	dec	hl
   01AB 7E                 2439 	ld	a,(hl)
   01AC F5                 2440 	push	af
   01AD 33                 2441 	inc	sp
                           2442 ; genIpush
                           2443 ; AOP_STK for _movegamecharacter_sloc0_1_0
   01AE F8 04              2444 	lda	hl,4(sp)
   01B0 7E                 2445 	ld	a,(hl)
   01B1 F5                 2446 	push	af
   01B2 33                 2447 	inc	sp
                           2448 ; genCall
   01B3 CD 00 00           2449 	call	_move_sprite
   01B6 E8 03              2450 	lda	sp,3(sp)
                           2451 ;	main.c 55
                           2452 ; genPlus
                           2453 ; AOP_STK for 
                           2454 ; AOP_HL for _spritesize
   01B8 F8 09              2455 	lda	hl,9(sp)
   01BA 7E                 2456 	ld	a,(hl)
   01BB 21 0A 01           2457 	ld	hl,#_spritesize + 0
   01BE 86                 2458 	add	a,(hl)
   01BF 4F                 2459 	ld	c,a
                           2460 ; genPlus
                           2461 ; AOP_STK for _movegamecharacter_sloc1_1_0
                           2462 ; genPlusIncr
   01C0 F8 00              2463 	lda	hl,0(sp)
   01C2 5E                 2464 	ld	e,(hl)
   01C3 23                 2465 	inc	hl
   01C4 56                 2466 	ld	d,(hl)
   01C5 13                 2467 	inc	de
                           2468 ; genPointerGet
   01C6 1A                 2469 	ld	a,(de)
   01C7 47                 2470 	ld	b,a
                           2471 ; genIpush
                           2472 ; AOP_STK for 
   01C8 F8 0A              2473 	lda	hl,10(sp)
   01CA 7E                 2474 	ld	a,(hl)
   01CB F5                 2475 	push	af
   01CC 33                 2476 	inc	sp
                           2477 ; genIpush
   01CD 79                 2478 	ld	a,c
   01CE F5                 2479 	push	af
   01CF 33                 2480 	inc	sp
                           2481 ; genIpush
   01D0 78                 2482 	ld	a,b
   01D1 F5                 2483 	push	af
   01D2 33                 2484 	inc	sp
                           2485 ; genCall
   01D3 CD 00 00           2486 	call	_move_sprite
   01D6 E8 03              2487 	lda	sp,3(sp)
                           2488 ;	main.c 56
                           2489 ; genPlus
                           2490 ; AOP_STK for 
                           2491 ; AOP_HL for _spritesize
                           2492 ; AOP_STK for _movegamecharacter_sloc0_1_0
   01D8 F8 0A              2493 	lda	hl,10(sp)
   01DA 7E                 2494 	ld	a,(hl)
   01DB 21 0A 01           2495 	ld	hl,#_spritesize + 0
   01DE 86                 2496 	add	a,(hl)
   01DF F8 02              2497 	lda	hl,2(sp)
   01E1 77                 2498 	ld	(hl),a ; 3
                           2499 ; genPlus
                           2500 ; AOP_STK for _movegamecharacter_sloc1_1_0
                           2501 ; genPlusIncr
   01E2 2B                 2502 	dec	hl
   01E3 2B                 2503 	dec	hl
   01E4 5E                 2504 	ld	e,(hl)
   01E5 23                 2505 	inc	hl
   01E6 56                 2506 	ld	d,(hl)
   01E7 13                 2507 	inc	de
   01E8 13                 2508 	inc	de
                           2509 ; genPointerGet
   01E9 1A                 2510 	ld	a,(de)
   01EA 47                 2511 	ld	b,a
                           2512 ; genIpush
                           2513 ; AOP_STK for _movegamecharacter_sloc0_1_0
   01EB 23                 2514 	inc	hl
   01EC 7E                 2515 	ld	a,(hl)
   01ED F5                 2516 	push	af
   01EE 33                 2517 	inc	sp
                           2518 ; genIpush
                           2519 ; AOP_STK for 
   01EF F8 0A              2520 	lda	hl,10(sp)
   01F1 7E                 2521 	ld	a,(hl)
   01F2 F5                 2522 	push	af
   01F3 33                 2523 	inc	sp
                           2524 ; genIpush
   01F4 78                 2525 	ld	a,b
   01F5 F5                 2526 	push	af
   01F6 33                 2527 	inc	sp
                           2528 ; genCall
   01F7 CD 00 00           2529 	call	_move_sprite
   01FA E8 03              2530 	lda	sp,3(sp)
                           2531 ;	main.c 57
                           2532 ; genPlus
                           2533 ; AOP_STK for _movegamecharacter_sloc1_1_0
                           2534 ; genPlusIncr
   01FC F8 00              2535 	lda	hl,0(sp)
   01FE 7E                 2536 	ld	a,(hl)
   01FF C6 03              2537 	add	a,#0x03
   0201 5F                 2538 	ld	e,a
   0202 23                 2539 	inc	hl
   0203 7E                 2540 	ld	a,(hl)
   0204 CE 00              2541 	adc	a,#0x00
   0206 57                 2542 	ld	d,a
                           2543 ; genPointerGet
   0207 1A                 2544 	ld	a,(de)
   0208 47                 2545 	ld	b,a
                           2546 ; genIpush
                           2547 ; AOP_STK for _movegamecharacter_sloc0_1_0
   0209 23                 2548 	inc	hl
   020A 7E                 2549 	ld	a,(hl)
   020B F5                 2550 	push	af
   020C 33                 2551 	inc	sp
                           2552 ; genIpush
   020D 79                 2553 	ld	a,c
   020E F5                 2554 	push	af
   020F 33                 2555 	inc	sp
                           2556 ; genIpush
   0210 78                 2557 	ld	a,b
   0211 F5                 2558 	push	af
   0212 33                 2559 	inc	sp
                           2560 ; genCall
   0213 CD 00 00           2561 	call	_move_sprite
   0216 E8 03              2562 	lda	sp,3(sp)
                           2563 ; genLabel
   0218                    2564 00101$:
                           2565 ; genEndFunction
   0218 E8 03              2566 	lda	sp,3(sp)
   021A C1                 2567 	pop bc
   021B C9                 2568 	ret
   021C                    2569 ___movegamecharacter_end:
                           2570 ;	main.c 62
                           2571 ; genLabel
                           2572 ; genFunction
                           2573 ;	---------------------------------
                           2574 ; Function setupShip
                           2575 ; ---------------------------------
   021C                    2576 ___setupShip_start:
   021C                    2577 _setupShip:
   021C C5                 2578 	push	bc
   021D E8 FD              2579 	lda sp,-3(sp)
                           2580 ;	main.c 64
                           2581 ; genPlus
                           2582 ; AOP_STK for _setupShip_sloc0_1_0
                           2583 ; genPlusIncr
   021F 3E 00              2584 	ld	a,#<_ship
   0221 C6 04              2585 	add	a,#0x04
   0223 F8 01              2586 	lda	hl,1(sp)
   0225 77                 2587 	ld	(hl),a ; 3
   0226 3E 01              2588 	ld	a,#>_ship
   0228 CE 00              2589 	adc	a,#0x00
   022A 23                 2590 	inc	hl
   022B 77                 2591 	ld	(hl),a ; 3
                           2592 ; genAssign (pointer)
                           2593 ; AOP_STK for _setupShip_sloc0_1_0
   022C 2B                 2594 	dec	hl
   022D 5E                 2595 	ld	e,(hl)
   022E 23                 2596 	inc	hl
   022F 56                 2597 	ld	d,(hl)
   0230 3E 50              2598 	ld	a,#0x50
   0232 12                 2599 	ld	(de),a
                           2600 ;	main.c 65
                           2601 ; genPlus
                           2602 ; genPlusIncr
   0233 01 05 01           2603 	ld	bc,#_ship + 5
                           2604 ; genAssign (pointer)
   0236 3E 82              2605 	ld	a,#0x82
   0238 02                 2606 	ld	(bc),a
                           2607 ;	main.c 66
                           2608 ; genPlus
                           2609 ; genPlusIncr
   0239 11 06 01           2610 	ld	de,#_ship + 6
                           2611 ; genAssign (pointer)
   023C 3E 10              2612 	ld	a,#0x10
   023E 12                 2613 	ld	(de),a
                           2614 ;	main.c 67
                           2615 ; genPlus
                           2616 ; genPlusIncr
   023F 11 07 01           2617 	ld	de,#_ship + 7
                           2618 ; genAssign (pointer)
   0242 3E 10              2619 	ld	a,#0x10
   0244 12                 2620 	ld	(de),a
                           2621 ;	main.c 70
                           2622 ; genIpush
   0245 3E 00              2623 	ld	a,#0x00
   0247 F5                 2624 	push	af
   0248 33                 2625 	inc	sp
                           2626 ; genIpush
   0249 3E 00              2627 	ld	a,#0x00
   024B F5                 2628 	push	af
   024C 33                 2629 	inc	sp
                           2630 ; genCall
   024D CD 00 00           2631 	call	_set_sprite_tile
   0250 E8 02              2632 	lda	sp,2(sp)
                           2633 ;	main.c 71
                           2634 ; genAssign (pointer)
   0252 11 00 01           2635 	ld	de,#_ship + 0
   0255 3E 00              2636 	ld	a,#0x00
   0257 12                 2637 	ld	(de),a
                           2638 ;	main.c 72
                           2639 ; genIpush
   0258 3E 01              2640 	ld	a,#0x01
   025A F5                 2641 	push	af
   025B 33                 2642 	inc	sp
                           2643 ; genIpush
   025C 3E 01              2644 	ld	a,#0x01
   025E F5                 2645 	push	af
   025F 33                 2646 	inc	sp
                           2647 ; genCall
   0260 CD 00 00           2648 	call	_set_sprite_tile
   0263 E8 02              2649 	lda	sp,2(sp)
                           2650 ;	main.c 73
                           2651 ; genPlus
                           2652 ; genPlusIncr
   0265 11 01 01           2653 	ld	de,#_ship + 1
                           2654 ; genAssign (pointer)
   0268 3E 01              2655 	ld	a,#0x01
   026A 12                 2656 	ld	(de),a
                           2657 ;	main.c 74
                           2658 ; genIpush
   026B 3E 02              2659 	ld	a,#0x02
   026D F5                 2660 	push	af
   026E 33                 2661 	inc	sp
                           2662 ; genIpush
   026F 3E 02              2663 	ld	a,#0x02
   0271 F5                 2664 	push	af
   0272 33                 2665 	inc	sp
                           2666 ; genCall
   0273 CD 00 00           2667 	call	_set_sprite_tile
   0276 E8 02              2668 	lda	sp,2(sp)
                           2669 ;	main.c 75
                           2670 ; genPlus
                           2671 ; genPlusIncr
   0278 11 02 01           2672 	ld	de,#_ship + 2
                           2673 ; genAssign (pointer)
   027B 3E 02              2674 	ld	a,#0x02
   027D 12                 2675 	ld	(de),a
                           2676 ;	main.c 76
                           2677 ; genIpush
   027E 3E 03              2678 	ld	a,#0x03
   0280 F5                 2679 	push	af
   0281 33                 2680 	inc	sp
                           2681 ; genIpush
   0282 3E 03              2682 	ld	a,#0x03
   0284 F5                 2683 	push	af
   0285 33                 2684 	inc	sp
                           2685 ; genCall
   0286 CD 00 00           2686 	call	_set_sprite_tile
   0289 E8 02              2687 	lda	sp,2(sp)
                           2688 ;	main.c 77
                           2689 ; genPlus
                           2690 ; genPlusIncr
   028B 11 03 01           2691 	ld	de,#_ship + 3
                           2692 ; genAssign (pointer)
   028E 3E 03              2693 	ld	a,#0x03
   0290 12                 2694 	ld	(de),a
                           2695 ;	main.c 79
                           2696 ; genPointerGet
                           2697 ; AOP_STK for _setupShip_sloc1_1_0
   0291 0A                 2698 	ld	a,(bc)
   0292 F8 00              2699 	lda	hl,0(sp)
   0294 77                 2700 	ld	(hl),a ; 3
                           2701 ; genPointerGet
                           2702 ; AOP_STK for _setupShip_sloc0_1_0
   0295 23                 2703 	inc	hl
   0296 5E                 2704 	ld	e,(hl)
   0297 23                 2705 	inc	hl
   0298 56                 2706 	ld	d,(hl)
   0299 1A                 2707 	ld	a,(de)
   029A 4F                 2708 	ld	c,a
                           2709 ; genIpush
                           2710 ; AOP_STK for _setupShip_sloc1_1_0
   029B 2B                 2711 	dec	hl
   029C 2B                 2712 	dec	hl
   029D 7E                 2713 	ld	a,(hl)
   029E F5                 2714 	push	af
   029F 33                 2715 	inc	sp
                           2716 ; genIpush
   02A0 79                 2717 	ld	a,c
   02A1 F5                 2718 	push	af
   02A2 33                 2719 	inc	sp
                           2720 ; genIpush
   02A3 21 00 01           2721 	ld	hl,#_ship + 0
   02A6 E5                 2722 	push	hl
                           2723 ; genCall
   02A7 CD 92 01           2724 	call	_movegamecharacter
   02AA E8 04              2725 	lda	sp,4(sp)
                           2726 ; genLabel
   02AC                    2727 00101$:
                           2728 ; genEndFunction
   02AC E8 03              2729 	lda	sp,3(sp)
   02AE C1                 2730 	pop bc
   02AF C9                 2731 	ret
   02B0                    2732 ___setupShip_end:
                           2733 ;	main.c 84
                           2734 ; genLabel
                           2735 ; genFunction
                           2736 ;	---------------------------------
                           2737 ; Function setupAsteroid
                           2738 ; ---------------------------------
   02B0                    2739 ___setupAsteroid_start:
   02B0                    2740 _setupAsteroid:
   02B0 C5                 2741 	push	bc
   02B1 E8 F4              2742 	lda sp,-12(sp)
                           2743 ;	main.c 86
                           2744 ; genAssign
                           2745 ; AOP_STK for _setupAsteroid_temp_1_1
   02B3 F8 0A              2746 	lda	hl,10(sp)
   02B5 36 04              2747 	ld	(hl),#0x04 ; 3
   02B7 23                 2748 	inc	hl
   02B8 36 00              2749 	ld	(hl),#0x00 ; 3
                           2750 ;	main.c 87
                           2751 ; genAssign
                           2752 ; AOP_STK for _setupAsteroid_distance_1_1
   02BA F8 08              2753 	lda	hl,8(sp)
   02BC 36 00              2754 	ld	(hl),#0x00 ; 3
   02BE 23                 2755 	inc	hl
   02BF 36 00              2756 	ld	(hl),#0x00 ; 3
                           2757 ;	main.c 88
                           2758 ; genAssign
                           2759 ; AOP_STK for _setupAsteroid_hight_1_1
   02C1 F8 06              2760 	lda	hl,6(sp)
   02C3 36 00              2761 	ld	(hl),#0x00 ; 3
   02C5 23                 2762 	inc	hl
   02C6 36 00              2763 	ld	(hl),#0x00 ; 3
                           2764 ;	main.c 91
                           2765 ; genAssign
                           2766 ; AOP_STK for _setupAsteroid_forCounter_1_1
   02C8 F8 04              2767 	lda	hl,4(sp)
   02CA 36 00              2768 	ld	(hl),#0x00 ; 3
   02CC 23                 2769 	inc	hl
   02CD 36 00              2770 	ld	(hl),#0x00 ; 3
                           2771 ; genLabel
   02CF                    2772 00101$:
                           2773 ; genCmpLt
                           2774 ; AOP_STK for _setupAsteroid_forCounter_1_1
   02CF F8 05              2775 	lda	hl,5(sp)
   02D1 7E                 2776 	ld	a,(hl)
   02D2 EE 80              2777 	xor	a,#0x80
   02D4 5F                 2778 	ld	e,a
   02D5 16 80              2779 	ld	d,#0x80
   02D7 2B                 2780 	dec	hl
   02D8 7E                 2781 	ld	a,(hl)
   02D9 DE 0C              2782 	sbc	a,#0x0C ; 2
   02DB 7B                 2783 	ld	a,e
   02DC 9A                 2784 	sbc	a,d
   02DD D2 02 03           2785 	jp	nc,00104$
                           2786 ;	main.c 93
                           2787 ; genCast
                           2788 ; AOP_STK for _setupAsteroid_temp_1_1
                           2789 ; AOP_STK for _setupAsteroid_sloc0_1_0
   02E0 F8 0A              2790 	lda	hl,10(sp)
   02E2 7E                 2791 	ld	a,(hl)
   02E3 F8 03              2792 	lda	hl,3(sp)
   02E5 77                 2793 	ld	(hl),a ; 3
                           2794 ; genIpush
                           2795 ; AOP_STK for _setupAsteroid_sloc0_1_0
   02E6 7E                 2796 	ld	a,(hl)
   02E7 F5                 2797 	push	af
   02E8 33                 2798 	inc	sp
                           2799 ; genIpush
                           2800 ; AOP_STK for _setupAsteroid_sloc0_1_0
   02E9 7E                 2801 	ld	a,(hl)
   02EA F5                 2802 	push	af
   02EB 33                 2803 	inc	sp
                           2804 ; genCall
   02EC CD 00 00           2805 	call	_set_sprite_tile
   02EF E8 02              2806 	lda	sp,2(sp)
                           2807 ;	main.c 94
                           2808 ; genPlus
                           2809 ; AOP_STK for _setupAsteroid_temp_1_1
                           2810 ; genPlusIncr
   02F1 F8 0A              2811 	lda	hl,10(sp)
   02F3 34                 2812 	inc	(hl)
   02F4 20 02              2813 	jr	nz,00115$
   02F6 23                 2814 	inc	hl
   02F7 34                 2815 	inc	(hl)
   02F8                    2816 00115$:
                           2817 ;	main.c 91
                           2818 ; genPlus
                           2819 ; AOP_STK for _setupAsteroid_forCounter_1_1
                           2820 ; genPlusIncr
   02F8 F8 04              2821 	lda	hl,4(sp)
   02FA 34                 2822 	inc	(hl)
   02FB 20 02              2823 	jr	nz,00116$
   02FD 23                 2824 	inc	hl
   02FE 34                 2825 	inc	(hl)
   02FF                    2826 00116$:
                           2827 ; genGoto
   02FF C3 CF 02           2828 	jp	00101$
                           2829 ; genLabel
   0302                    2830 00104$:
                           2831 ;	main.c 97
                           2832 ; genAssign
                           2833 ; AOP_STK for _setupAsteroid_temp_1_1
   0302 F8 0A              2834 	lda	hl,10(sp)
   0304 36 04              2835 	ld	(hl),#0x04 ; 3
   0306 23                 2836 	inc	hl
   0307 36 00              2837 	ld	(hl),#0x00 ; 3
                           2838 ;	main.c 98
                           2839 ; genAssign
                           2840 ; AOP_HL for _i
   0309 21 29 01           2841 	ld	hl,#_i + 0
   030C 36 00              2842 	ld	(hl),#0x00
   030E 21 2A 01           2843 	ld	hl,#_i + 1
   0311 36 00              2844 	ld	(hl),#0x00
                           2845 ; genLabel
   0313                    2846 00105$:
                           2847 ; genAssign
                           2848 ; AOP_HL for _asteroidcount
   0313 21 15 09           2849 	ld	hl,#_asteroidcount + 0
   0316 4E                 2850 	ld	c,(hl)
   0317 21 16 09           2851 	ld	hl,#_asteroidcount + 1
   031A 46                 2852 	ld	b,(hl)
                           2853 ; genCmpLt
                           2854 ; AOP_HL for _i
   031B 21 2A 01           2855 	ld	hl,#_i + 1
   031E 7E                 2856 	ld	a,(hl)
   031F EE 80              2857 	xor	a,#0x80
   0321 5F                 2858 	ld	e,a
   0322 78                 2859 	ld	a,b
   0323 EE 80              2860 	xor	a,#0x80
   0325 57                 2861 	ld	d,a
   0326 21 29 01           2862 	ld	hl,#_i + 0
   0329 7E                 2863 	ld	a,(hl)
   032A 99                 2864 	sbc	a,c ; 2
   032B 7B                 2865 	ld	a,e
   032C 9A                 2866 	sbc	a,d
   032D D2 31 04           2867 	jp	nc,00109$
                           2868 ;	main.c 100
                           2869 ; genPlus
                           2870 ; AOP_STK for _setupAsteroid_distance_1_1
                           2871 ; genPlusIncr
   0330 F8 08              2872 	lda	hl,8(sp)
   0332 7E                 2873 	ld	a,(hl)
   0333 C6 14              2874 	add	a,#0x14
   0335 77                 2875 	ld	(hl),a ; 3
   0336 23                 2876 	inc	hl
   0337 7E                 2877 	ld	a,(hl)
   0338 CE 00              2878 	adc	a,#0x00
   033A 77                 2879 	ld	(hl),a ; 3
                           2880 ;	main.c 101
                           2881 ; genPlus
                           2882 ; AOP_STK for _setupAsteroid_hight_1_1
                           2883 ; genPlusIncr
   033B F8 06              2884 	lda	hl,6(sp)
   033D 7E                 2885 	ld	a,(hl)
   033E C6 0A              2886 	add	a,#0x0A
   0340 77                 2887 	ld	(hl),a ; 3
   0341 23                 2888 	inc	hl
   0342 7E                 2889 	ld	a,(hl)
   0343 CE 00              2890 	adc	a,#0x00
   0345 77                 2891 	ld	(hl),a ; 3
                           2892 ;	main.c 102
                           2893 ; genIpush
   0346 21 0A 00           2894 	ld	hl,#0x000A
   0349 E5                 2895 	push	hl
                           2896 ; genIpush
                           2897 ; AOP_HL for _i
   034A 21 29 01           2898 	ld	hl,#_i + 0
   034D 2A                 2899 	ld	a,(hl+)
   034E 66                 2900 	ld	h,(hl)
   034F 6F                 2901 	ld	l,a
   0350 E5                 2902 	push	hl
                           2903 ; genCall
   0351 CD 00 00           2904 	call	__mulsint
   0354 42                 2905 	ld	b,d
   0355 4B                 2906 	ld	c,e
   0356 E8 04              2907 	lda	sp,4(sp)
                           2908 ; genPlus
                           2909 ; AOP_STK for _setupAsteroid_sloc1_1_0
   0358 3E 0B              2910 	ld	a,#<_asteroid
   035A 81                 2911 	add	a,c
   035B F8 01              2912 	lda	hl,1(sp)
   035D 77                 2913 	ld	(hl),a ; 3
   035E 3E 01              2914 	ld	a,#>_asteroid
   0360 88                 2915 	adc	a,b
   0361 23                 2916 	inc	hl
   0362 77                 2917 	ld	(hl),a ; 3
                           2918 ; genPlus
                           2919 ; AOP_STK for _setupAsteroid_sloc1_1_0
                           2920 ; genPlusIncr
   0363 2B                 2921 	dec	hl
   0364 7E                 2922 	ld	a,(hl)
   0365 C6 08              2923 	add	a,#0x08
   0367 5F                 2924 	ld	e,a
   0368 23                 2925 	inc	hl
   0369 7E                 2926 	ld	a,(hl)
   036A CE 00              2927 	adc	a,#0x00
   036C 57                 2928 	ld	d,a
                           2929 ; genCast
                           2930 ; AOP_HL for _i
   036D 21 29 01           2931 	ld	hl,#_i + 0
   0370 4E                 2932 	ld	c,(hl)
                           2933 ; genAssign (pointer)
   0371 79                 2934 	ld	a,c
   0372 12                 2935 	ld	(de),a
                           2936 ;	main.c 103
                           2937 ; genPlus
                           2938 ; AOP_STK for _setupAsteroid_sloc1_1_0
                           2939 ; genPlusIncr
   0373 F8 01              2940 	lda	hl,1(sp)
   0375 7E                 2941 	ld	a,(hl)
   0376 C6 04              2942 	add	a,#0x04
   0378 5F                 2943 	ld	e,a
   0379 23                 2944 	inc	hl
   037A 7E                 2945 	ld	a,(hl)
   037B CE 00              2946 	adc	a,#0x00
   037D 57                 2947 	ld	d,a
                           2948 ; genCast
                           2949 ; AOP_STK for _setupAsteroid_distance_1_1
                           2950 ; AOP_STK for _setupAsteroid_sloc0_1_0
   037E F8 08              2951 	lda	hl,8(sp)
   0380 7E                 2952 	ld	a,(hl)
   0381 F8 03              2953 	lda	hl,3(sp)
   0383 77                 2954 	ld	(hl),a ; 3
                           2955 ; genAssign (pointer)
                           2956 ; AOP_STK for _setupAsteroid_sloc0_1_0
   0384 7E                 2957 	ld	a,(hl)
   0385 12                 2958 	ld	(de),a
                           2959 ;	main.c 104
                           2960 ; genPlus
                           2961 ; AOP_STK for _setupAsteroid_sloc1_1_0
                           2962 ; genPlusIncr
   0386 2B                 2963 	dec	hl
   0387 2B                 2964 	dec	hl
   0388 7E                 2965 	ld	a,(hl)
   0389 C6 05              2966 	add	a,#0x05
   038B 5F                 2967 	ld	e,a
   038C 23                 2968 	inc	hl
   038D 7E                 2969 	ld	a,(hl)
   038E CE 00              2970 	adc	a,#0x00
   0390 57                 2971 	ld	d,a
                           2972 ; genPlus
                           2973 ; AOP_STK for _setupAsteroid_hight_1_1
                           2974 ; genPlusIncr
   0391 F8 06              2975 	lda	hl,6(sp)
   0393 7E                 2976 	ld	a,(hl)
   0394 C6 14              2977 	add	a,#0x14
   0396 47                 2978 	ld	b,a
   0397 23                 2979 	inc	hl
   0398 7E                 2980 	ld	a,(hl)
   0399 CE 00              2981 	adc	a,#0x00
   039B 4F                 2982 	ld	c,a
                           2983 ; genCast
                           2984 ; AOP_STK for _setupAsteroid_sloc2_1_0
   039C F8 00              2985 	lda	hl,0(sp)
   039E 70                 2986 	ld	(hl),b ; 3
                           2987 ; genAssign (pointer)
                           2988 ; AOP_STK for _setupAsteroid_sloc2_1_0
   039F 7E                 2989 	ld	a,(hl)
   03A0 12                 2990 	ld	(de),a
                           2991 ;	main.c 105
                           2992 ; genPlus
                           2993 ; AOP_STK for _setupAsteroid_sloc1_1_0
                           2994 ; genPlusIncr
   03A1 23                 2995 	inc	hl
   03A2 7E                 2996 	ld	a,(hl)
   03A3 C6 06              2997 	add	a,#0x06
   03A5 5F                 2998 	ld	e,a
   03A6 23                 2999 	inc	hl
   03A7 7E                 3000 	ld	a,(hl)
   03A8 CE 00              3001 	adc	a,#0x00
   03AA 57                 3002 	ld	d,a
                           3003 ; genAssign (pointer)
   03AB 3E 10              3004 	ld	a,#0x10
   03AD 12                 3005 	ld	(de),a
                           3006 ;	main.c 106
                           3007 ; genPlus
                           3008 ; AOP_STK for _setupAsteroid_sloc1_1_0
                           3009 ; genPlusIncr
   03AE 2B                 3010 	dec	hl
   03AF 7E                 3011 	ld	a,(hl)
   03B0 C6 07              3012 	add	a,#0x07
   03B2 5F                 3013 	ld	e,a
   03B3 23                 3014 	inc	hl
   03B4 7E                 3015 	ld	a,(hl)
   03B5 CE 00              3016 	adc	a,#0x00
   03B7 57                 3017 	ld	d,a
                           3018 ; genAssign (pointer)
   03B8 3E 10              3019 	ld	a,#0x10
   03BA 12                 3020 	ld	(de),a
                           3021 ;	main.c 107
                           3022 ; genPlus
                           3023 ; AOP_STK for _setupAsteroid_sloc1_1_0
                           3024 ; genPlusIncr
   03BB 2B                 3025 	dec	hl
   03BC 7E                 3026 	ld	a,(hl)
   03BD C6 09              3027 	add	a,#0x09
   03BF 5F                 3028 	ld	e,a
   03C0 23                 3029 	inc	hl
   03C1 7E                 3030 	ld	a,(hl)
   03C2 CE 00              3031 	adc	a,#0x00
   03C4 57                 3032 	ld	d,a
                           3033 ; genAssign (pointer)
   03C5 3E 01              3034 	ld	a,#0x01
   03C7 12                 3035 	ld	(de),a
                           3036 ;	main.c 109
                           3037 ; genCast
                           3038 ; AOP_STK for _setupAsteroid_temp_1_1
   03C8 F8 0A              3039 	lda	hl,10(sp)
   03CA 46                 3040 	ld	b,(hl)
                           3041 ; genAssign (pointer)
                           3042 ; AOP_STK for _setupAsteroid_sloc1_1_0
   03CB F8 01              3043 	lda	hl,1(sp)
   03CD 5E                 3044 	ld	e,(hl)
   03CE 23                 3045 	inc	hl
   03CF 56                 3046 	ld	d,(hl)
   03D0 78                 3047 	ld	a,b
   03D1 12                 3048 	ld	(de),a
                           3049 ;	main.c 110
                           3050 ; genPlus
                           3051 ; AOP_STK for _setupAsteroid_temp_1_1
                           3052 ; genPlusIncr
   03D2 F8 0A              3053 	lda	hl,10(sp)
   03D4 34                 3054 	inc	(hl)
   03D5 20 02              3055 	jr	nz,00117$
   03D7 23                 3056 	inc	hl
   03D8 34                 3057 	inc	(hl)
   03D9                    3058 00117$:
                           3059 ;	main.c 111
                           3060 ; genPlus
                           3061 ; AOP_STK for _setupAsteroid_sloc1_1_0
                           3062 ; genPlusIncr
   03D9 F8 01              3063 	lda	hl,1(sp)
   03DB 5E                 3064 	ld	e,(hl)
   03DC 23                 3065 	inc	hl
   03DD 56                 3066 	ld	d,(hl)
   03DE 13                 3067 	inc	de
                           3068 ; genCast
                           3069 ; AOP_STK for _setupAsteroid_temp_1_1
   03DF F8 0A              3070 	lda	hl,10(sp)
   03E1 46                 3071 	ld	b,(hl)
                           3072 ; genAssign (pointer)
   03E2 78                 3073 	ld	a,b
   03E3 12                 3074 	ld	(de),a
                           3075 ;	main.c 112
                           3076 ; genPlus
                           3077 ; AOP_STK for _setupAsteroid_temp_1_1
                           3078 ; genPlusIncr
   03E4 34                 3079 	inc	(hl)
   03E5 20 02              3080 	jr	nz,00118$
   03E7 23                 3081 	inc	hl
   03E8 34                 3082 	inc	(hl)
   03E9                    3083 00118$:
                           3084 ;	main.c 113
                           3085 ; genPlus
                           3086 ; AOP_STK for _setupAsteroid_sloc1_1_0
                           3087 ; genPlusIncr
   03E9 F8 01              3088 	lda	hl,1(sp)
   03EB 5E                 3089 	ld	e,(hl)
   03EC 23                 3090 	inc	hl
   03ED 56                 3091 	ld	d,(hl)
   03EE 13                 3092 	inc	de
   03EF 13                 3093 	inc	de
                           3094 ; genCast
                           3095 ; AOP_STK for _setupAsteroid_temp_1_1
   03F0 F8 0A              3096 	lda	hl,10(sp)
   03F2 46                 3097 	ld	b,(hl)
                           3098 ; genAssign (pointer)
   03F3 78                 3099 	ld	a,b
   03F4 12                 3100 	ld	(de),a
                           3101 ;	main.c 114
                           3102 ; genPlus
                           3103 ; AOP_STK for _setupAsteroid_temp_1_1
                           3104 ; genPlusIncr
   03F5 34                 3105 	inc	(hl)
   03F6 20 02              3106 	jr	nz,00119$
   03F8 23                 3107 	inc	hl
   03F9 34                 3108 	inc	(hl)
   03FA                    3109 00119$:
                           3110 ;	main.c 115
                           3111 ; genPlus
                           3112 ; AOP_STK for _setupAsteroid_sloc1_1_0
                           3113 ; genPlusIncr
   03FA F8 01              3114 	lda	hl,1(sp)
   03FC 7E                 3115 	ld	a,(hl)
   03FD C6 03              3116 	add	a,#0x03
   03FF 5F                 3117 	ld	e,a
   0400 23                 3118 	inc	hl
   0401 7E                 3119 	ld	a,(hl)
   0402 CE 00              3120 	adc	a,#0x00
   0404 57                 3121 	ld	d,a
                           3122 ; genCast
                           3123 ; AOP_STK for _setupAsteroid_temp_1_1
   0405 F8 0A              3124 	lda	hl,10(sp)
   0407 46                 3125 	ld	b,(hl)
                           3126 ; genAssign (pointer)
   0408 78                 3127 	ld	a,b
   0409 12                 3128 	ld	(de),a
                           3129 ;	main.c 116
                           3130 ; genPlus
                           3131 ; AOP_STK for _setupAsteroid_temp_1_1
                           3132 ; genPlusIncr
   040A 34                 3133 	inc	(hl)
   040B 20 02              3134 	jr	nz,00120$
   040D 23                 3135 	inc	hl
   040E 34                 3136 	inc	(hl)
   040F                    3137 00120$:
                           3138 ;	main.c 117
                           3139 ; genIpush
                           3140 ; AOP_STK for _setupAsteroid_sloc2_1_0
   040F F8 00              3141 	lda	hl,0(sp)
   0411 7E                 3142 	ld	a,(hl)
   0412 F5                 3143 	push	af
   0413 33                 3144 	inc	sp
                           3145 ; genIpush
                           3146 ; AOP_STK for _setupAsteroid_sloc0_1_0
   0414 F8 04              3147 	lda	hl,4(sp)
   0416 7E                 3148 	ld	a,(hl)
   0417 F5                 3149 	push	af
   0418 33                 3150 	inc	sp
                           3151 ; genIpush
                           3152 ; AOP_STK for _setupAsteroid_sloc1_1_0
   0419 2B                 3153 	dec	hl
   041A 2B                 3154 	dec	hl
   041B 2A                 3155 	ld	a,(hl+)
   041C 66                 3156 	ld	h,(hl)
   041D 6F                 3157 	ld	l,a
   041E E5                 3158 	push	hl
                           3159 ; genCall
   041F CD 92 01           3160 	call	_movegamecharacter
   0422 E8 04              3161 	lda	sp,4(sp)
                           3162 ;	main.c 98
                           3163 ; genPlus
                           3164 ; AOP_HL for _i
                           3165 ; genPlusIncr
   0424 21 29 01           3166 	ld	hl,#_i + 0
   0427 34                 3167 	inc	(hl)
   0428 20 04              3168 	jr	nz,00121$
   042A 21 2A 01           3169 	ld	hl,#_i + 1
   042D 34                 3170 	inc	(hl)
   042E                    3171 00121$:
                           3172 ; genGoto
   042E C3 13 03           3173 	jp	00105$
                           3174 ; genLabel
   0431                    3175 00109$:
                           3176 ; genEndFunction
   0431 E8 0C              3177 	lda	sp,12(sp)
   0433 C1                 3178 	pop bc
   0434 C9                 3179 	ret
   0435                    3180 ___setupAsteroid_end:
                           3181 ;	main.c 123
                           3182 ; genLabel
                           3183 ; genFunction
                           3184 ;	---------------------------------
                           3185 ; Function GameOver
                           3186 ; ---------------------------------
   0435                    3187 ___GameOver_start:
   0435                    3188 _GameOver:
   0435 C5                 3189 	push	bc
   0436 E8 FB              3190 	lda sp,-5(sp)
                           3191 ;	main.c 126
                           3192 ; genAnd
                           3193 ; AOP_SFR for _LCDC_REG
   0438 F0 00              3194 	ldh	a,(_LCDC_REG+0) ; x
   043A E6 FD              3195 	and	a,#0xFD
   043C E0 00              3196 	ldh	(_LCDC_REG+0),a
                           3197 ;	main.c 128
                           3198 ; genIpush
   043E 3E 00              3199 	ld	a,#0x00
   0440 F5                 3200 	push	af
   0441 33                 3201 	inc	sp
                           3202 ; genIpush
   0442 3E 00              3203 	ld	a,#0x00
   0444 F5                 3204 	push	af
   0445 33                 3205 	inc	sp
                           3206 ; genCall
   0446 CD 00 00           3207 	call	_gotoxy
   0449 E8 02              3208 	lda	sp,2(sp)
                           3209 ;	main.c 129
                           3210 ; genIpush
   044B 21 17 09           3211 	ld	hl,#__str_0 + 0
   044E E5                 3212 	push	hl
                           3213 ; genCall
   044F CD 00 00           3214 	call	_printf
   0452 E8 02              3215 	lda	sp,2(sp)
                           3216 ;	main.c 131
                           3217 ; genAssign
                           3218 ; AOP_HL for _i
   0454 21 29 01           3219 	ld	hl,#_i + 0
   0457 36 00              3220 	ld	(hl),#0x00
   0459 21 2A 01           3221 	ld	hl,#_i + 1
   045C 36 00              3222 	ld	(hl),#0x00
                           3223 ; genLabel
   045E                    3224 00103$:
                           3225 ; genAssign
                           3226 ; AOP_HL for _asteroidcount
   045E 21 15 09           3227 	ld	hl,#_asteroidcount + 0
   0461 4E                 3228 	ld	c,(hl)
   0462 21 16 09           3229 	ld	hl,#_asteroidcount + 1
   0465 46                 3230 	ld	b,(hl)
                           3231 ; genCmpLt
                           3232 ; AOP_HL for _i
   0466 21 2A 01           3233 	ld	hl,#_i + 1
   0469 7E                 3234 	ld	a,(hl)
   046A EE 80              3235 	xor	a,#0x80
   046C 5F                 3236 	ld	e,a
   046D 78                 3237 	ld	a,b
   046E EE 80              3238 	xor	a,#0x80
   0470 57                 3239 	ld	d,a
   0471 21 29 01           3240 	ld	hl,#_i + 0
   0474 7E                 3241 	ld	a,(hl)
   0475 99                 3242 	sbc	a,c ; 2
   0476 7B                 3243 	ld	a,e
   0477 9A                 3244 	sbc	a,d
   0478 D2 32 05           3245 	jp	nc,00106$
                           3246 ;	main.c 133
                           3247 ; genCmpGt
                           3248 ; AOP_HL for _j
                           3249 ; AOP_HL for _asteroidsSpawnXCount
   047B 21 4C 01           3250 	ld	hl,#_asteroidsSpawnXCount + 1
   047E 7E                 3251 	ld	a,(hl)
   047F EE 80              3252 	xor	a,#0x80
   0481 5F                 3253 	ld	e,a
   0482 21 4E 01           3254 	ld	hl,#_j + 1
   0485 7E                 3255 	ld	a,(hl)
   0486 EE 80              3256 	xor	a,#0x80
   0488 57                 3257 	ld	d,a
   0489 21 4B 01           3258 	ld	hl,#_asteroidsSpawnXCount + 0
   048C 7E                 3259 	ld	a,(hl)
   048D 21 4D 01           3260 	ld	hl,#_j + 0
   0490 9E                 3261 	sbc	a,(hl) ; 2
   0491 7B                 3262 	ld	a,e
   0492 9A                 3263 	sbc	a,d
   0493 D2 9D 04           3264 	jp	nc,00102$
                           3265 ;	main.c 135
                           3266 ; genAssign
                           3267 ; AOP_HL for _j
   0496 36 00              3268 	ld	(hl),#0x00
   0498 21 4E 01           3269 	ld	hl,#_j + 1
   049B 36 00              3270 	ld	(hl),#0x00
                           3271 ; genLabel
   049D                    3272 00102$:
                           3273 ;	main.c 137
                           3274 ; genIpush
   049D 21 0A 00           3275 	ld	hl,#0x000A
   04A0 E5                 3276 	push	hl
                           3277 ; genIpush
                           3278 ; AOP_HL for _i
   04A1 21 29 01           3279 	ld	hl,#_i + 0
   04A4 2A                 3280 	ld	a,(hl+)
   04A5 66                 3281 	ld	h,(hl)
   04A6 6F                 3282 	ld	l,a
   04A7 E5                 3283 	push	hl
                           3284 ; genCall
   04A8 CD 00 00           3285 	call	__mulsint
   04AB 42                 3286 	ld	b,d
   04AC 4B                 3287 	ld	c,e
   04AD E8 04              3288 	lda	sp,4(sp)
                           3289 ; genPlus
                           3290 ; AOP_STK for _GameOver_sloc1_1_0
   04AF 3E 0B              3291 	ld	a,#<_asteroid
   04B1 81                 3292 	add	a,c
   04B2 F8 01              3293 	lda	hl,1(sp)
   04B4 77                 3294 	ld	(hl),a ; 3
   04B5 3E 01              3295 	ld	a,#>_asteroid
   04B7 88                 3296 	adc	a,b
   04B8 23                 3297 	inc	hl
   04B9 77                 3298 	ld	(hl),a ; 3
                           3299 ; genPlus
                           3300 ; AOP_STK for _GameOver_sloc1_1_0
                           3301 ; AOP_STK for _GameOver_sloc0_1_0
                           3302 ; genPlusIncr
   04BA 2B                 3303 	dec	hl
   04BB 7E                 3304 	ld	a,(hl)
   04BC C6 04              3305 	add	a,#0x04
   04BE 23                 3306 	inc	hl
   04BF 23                 3307 	inc	hl
   04C0 77                 3308 	ld	(hl),a ; 3
   04C1 2B                 3309 	dec	hl
   04C2 7E                 3310 	ld	a,(hl)
   04C3 CE 00              3311 	adc	a,#0x00
   04C5 23                 3312 	inc	hl
   04C6 23                 3313 	inc	hl
   04C7 77                 3314 	ld	(hl),a ; 3
                           3315 ; genLeftShift
                           3316 ; AOP_HL for _j
   04C8 21 4D 01           3317 	ld	hl,#_j + 0
   04CB 4E                 3318 	ld	c,(hl)
   04CC 21 4E 01           3319 	ld	hl,#_j + 1
   04CF 46                 3320 	ld	b,(hl)
   04D0 B7                 3321 	or	a,a
   04D1 CB 11              3322 	rl	c
   04D3 CB 10              3323 	rl	b
                           3324 ; genPlus
   04D5 3E 2B              3325 	ld	a,#<_asteroidsSpawnX
   04D7 81                 3326 	add	a,c
   04D8 5F                 3327 	ld	e,a
   04D9 3E 01              3328 	ld	a,#>_asteroidsSpawnX
   04DB 88                 3329 	adc	a,b
   04DC 57                 3330 	ld	d,a
                           3331 ; genPointerGet
                           3332 ; Removed redundent load
                           3333 ; Removed redundent load
   04DD 1A                 3334 	ld	a,(de)
   04DE 4F                 3335 	ld	c,a
   04DF 13                 3336 	inc	de
   04E0 1A                 3337 	ld	a,(de)
   04E1 47                 3338 	ld	b,a
                           3339 ; genCast
                           3340 ; AOP_STK for _GameOver_sloc2_1_0
   04E2 F8 00              3341 	lda	hl,0(sp)
   04E4 71                 3342 	ld	(hl),c ; 3
                           3343 ; genAssign (pointer)
                           3344 ; AOP_STK for _GameOver_sloc0_1_0
                           3345 ; AOP_STK for _GameOver_sloc2_1_0
   04E5 F8 03              3346 	lda	hl,3(sp)
   04E7 5E                 3347 	ld	e,(hl)
   04E8 23                 3348 	inc	hl
   04E9 56                 3349 	ld	d,(hl)
   04EA F8 00              3350 	lda	hl,0(sp)
   04EC 7E                 3351 	ld	a,(hl)
   04ED 12                 3352 	ld	(de),a
                           3353 ;	main.c 138
                           3354 ; genPlus
                           3355 ; AOP_STK for _GameOver_sloc1_1_0
                           3356 ; genPlusIncr
   04EE 23                 3357 	inc	hl
   04EF 7E                 3358 	ld	a,(hl)
   04F0 C6 05              3359 	add	a,#0x05
   04F2 5F                 3360 	ld	e,a
   04F3 23                 3361 	inc	hl
   04F4 7E                 3362 	ld	a,(hl)
   04F5 CE 00              3363 	adc	a,#0x00
   04F7 57                 3364 	ld	d,a
                           3365 ; genCast
                           3366 ; AOP_HL for _Hight
   04F8 21 52 01           3367 	ld	hl,#_Hight + 0
   04FB 4E                 3368 	ld	c,(hl)
                           3369 ; genAssign (pointer)
   04FC 79                 3370 	ld	a,c
   04FD 12                 3371 	ld	(de),a
                           3372 ;	main.c 139
                           3373 ; genPlus
                           3374 ; AOP_HL for _Hight
                           3375 ; genPlusIncr
   04FE 7E                 3376 	ld	a,(hl)
   04FF C6 0A              3377 	add	a,#0x0A
   0501 77                 3378 	ld	(hl),a
   0502 21 53 01           3379 	ld	hl,#_Hight + 1
   0505 7E                 3380 	ld	a,(hl)
   0506 CE 00              3381 	adc	a,#0x00
   0508 77                 3382 	ld	(hl),a
                           3383 ;	main.c 140
                           3384 ; genPlus
                           3385 ; AOP_HL for _j
                           3386 ; genPlusIncr
   0509 21 4D 01           3387 	ld	hl,#_j + 0
   050C 34                 3388 	inc	(hl)
   050D 20 04              3389 	jr	nz,00112$
   050F 21 4E 01           3390 	ld	hl,#_j + 1
   0512 34                 3391 	inc	(hl)
   0513                    3392 00112$:
                           3393 ;	main.c 141
                           3394 ; genIpush
   0513 79                 3395 	ld	a,c
   0514 F5                 3396 	push	af
   0515 33                 3397 	inc	sp
                           3398 ; genIpush
                           3399 ; AOP_STK for _GameOver_sloc2_1_0
   0516 F8 01              3400 	lda	hl,1(sp)
   0518 7E                 3401 	ld	a,(hl)
   0519 F5                 3402 	push	af
   051A 33                 3403 	inc	sp
                           3404 ; genIpush
                           3405 ; AOP_STK for _GameOver_sloc1_1_0
   051B 23                 3406 	inc	hl
   051C 2A                 3407 	ld	a,(hl+)
   051D 66                 3408 	ld	h,(hl)
   051E 6F                 3409 	ld	l,a
   051F E5                 3410 	push	hl
                           3411 ; genCall
   0520 CD 92 01           3412 	call	_movegamecharacter
   0523 E8 04              3413 	lda	sp,4(sp)
                           3414 ;	main.c 131
                           3415 ; genPlus
                           3416 ; AOP_HL for _i
                           3417 ; genPlusIncr
   0525 21 29 01           3418 	ld	hl,#_i + 0
   0528 34                 3419 	inc	(hl)
   0529 20 04              3420 	jr	nz,00113$
   052B 21 2A 01           3421 	ld	hl,#_i + 1
   052E 34                 3422 	inc	(hl)
   052F                    3423 00113$:
                           3424 ; genGoto
   052F C3 5E 04           3425 	jp	00103$
                           3426 ; genLabel
   0532                    3427 00106$:
                           3428 ;	main.c 144
                           3429 ; genAssign
                           3430 ; AOP_HL for _Hight
   0532 21 52 01           3431 	ld	hl,#_Hight + 0
   0535 36 00              3432 	ld	(hl),#0x00
   0537 21 53 01           3433 	ld	hl,#_Hight + 1
   053A 36 00              3434 	ld	(hl),#0x00
                           3435 ;	main.c 146
                           3436 ; genIpush
   053C 3E 80              3437 	ld	a,#0x80
   053E F5                 3438 	push	af
   053F 33                 3439 	inc	sp
                           3440 ; genCall
   0540 CD 00 00           3441 	call	_waitpad
   0543 E8 01              3442 	lda	sp,1(sp)
                           3443 ;	main.c 147
                           3444 ; genAssign
                           3445 ; AOP_HL for _HP
   0545 21 4F 01           3446 	ld	hl,#_HP + 0
   0548 36 03              3447 	ld	(hl),#0x03
   054A 21 50 01           3448 	ld	hl,#_HP + 1
   054D 36 00              3449 	ld	(hl),#0x00
                           3450 ;	main.c 148
                           3451 ; genIpush
   054F 3E 00              3452 	ld	a,#0x00
   0551 F5                 3453 	push	af
   0552 33                 3454 	inc	sp
                           3455 ; genIpush
   0553 3E 00              3456 	ld	a,#0x00
   0555 F5                 3457 	push	af
   0556 33                 3458 	inc	sp
                           3459 ; genCall
   0557 CD 00 00           3460 	call	_gotoxy
   055A E8 02              3461 	lda	sp,2(sp)
                           3462 ;	main.c 149
                           3463 ; genIpush
   055C 21 3A 09           3464 	ld	hl,#__str_1 + 0
   055F E5                 3465 	push	hl
                           3466 ; genCall
   0560 CD 00 00           3467 	call	_printf
   0563 E8 02              3468 	lda	sp,2(sp)
                           3469 ;	main.c 151
                           3470 ; genOr
                           3471 ; AOP_SFR for _LCDC_REG
                           3472 ; Type res[4] = l[4]&r[1]
                           3473 ; Size res[1] = l[1]&r[1]
   0565 F0 00              3474 	ldh	a,(_LCDC_REG+0) ; x
   0567 F6 02              3475 	or	a,#0x02
   0569 E0 00              3476 	ldh	(_LCDC_REG+0),a
                           3477 ;	main.c 152
                           3478 ; genCall
   056B CD 72 05           3479 	call	_GameLoop
                           3480 ; genLabel
   056E                    3481 00107$:
                           3482 ; genEndFunction
   056E E8 05              3483 	lda	sp,5(sp)
   0570 C1                 3484 	pop bc
   0571 C9                 3485 	ret
   0572                    3486 ___GameOver_end:
                           3487 ;	main.c 157
                           3488 ; genLabel
                           3489 ; genFunction
                           3490 ;	---------------------------------
                           3491 ; Function GameLoop
                           3492 ; ---------------------------------
   0572                    3493 ___GameLoop_start:
   0572                    3494 _GameLoop:
   0572 C5                 3495 	push	bc
   0573 E8 E3              3496 	lda sp,-29(sp)
                           3497 ;	main.c 160
                           3498 ; genIpush
   0575 3E 00              3499 	ld	a,#0x00
   0577 F5                 3500 	push	af
   0578 33                 3501 	inc	sp
                           3502 ; genIpush
   0579 3E 00              3503 	ld	a,#0x00
   057B F5                 3504 	push	af
   057C 33                 3505 	inc	sp
                           3506 ; genCall
   057D CD 00 00           3507 	call	_gotoxy
   0580 E8 02              3508 	lda	sp,2(sp)
                           3509 ;	main.c 161
                           3510 ; genIpush
                           3511 ; AOP_HL for _HP
   0582 21 4F 01           3512 	ld	hl,#_HP + 0
   0585 2A                 3513 	ld	a,(hl+)
   0586 66                 3514 	ld	h,(hl)
   0587 6F                 3515 	ld	l,a
   0588 E5                 3516 	push	hl
                           3517 ; genIpush
   0589 21 77 09           3518 	ld	hl,#__str_2 + 0
   058C E5                 3519 	push	hl
                           3520 ; genCall
   058D CD 00 00           3521 	call	_printf
   0590 E8 04              3522 	lda	sp,4(sp)
                           3523 ;	main.c 163
                           3524 ; genAssign
                           3525 ; AOP_HL for _IsGameOver
   0592 21 51 01           3526 	ld	hl,#_IsGameOver + 0
   0595 36 00              3527 	ld	(hl),#0x00
                           3528 ;	main.c 164
                           3529 ; genPlus
                           3530 ; AOP_STK for _GameLoop_sloc0_1_0
                           3531 ; genPlusIncr
   0597 3E 00              3532 	ld	a,#<_ship
   0599 C6 04              3533 	add	a,#0x04
   059B F8 1B              3534 	lda	hl,27(sp)
   059D 77                 3535 	ld	(hl),a ; 3
   059E 3E 01              3536 	ld	a,#>_ship
   05A0 CE 00              3537 	adc	a,#0x00
   05A2 23                 3538 	inc	hl
   05A3 77                 3539 	ld	(hl),a ; 3
                           3540 ; genPlus
                           3541 ; AOP_STK for _GameLoop_sloc1_1_0
                           3542 ; genPlusIncr
   05A4 3E 00              3543 	ld	a,#<_ship
   05A6 C6 05              3544 	add	a,#0x05
   05A8 F8 19              3545 	lda	hl,25(sp)
   05AA 77                 3546 	ld	(hl),a ; 3
   05AB 3E 01              3547 	ld	a,#>_ship
   05AD CE 00              3548 	adc	a,#0x00
   05AF 23                 3549 	inc	hl
   05B0 77                 3550 	ld	(hl),a ; 3
                           3551 ; genLabel
   05B1                    3552 00111$:
                           3553 ; genCmpEq
                           3554 ; AOP_HL for _IsGameOver
   05B1 21 51 01           3555 	ld	hl,#_IsGameOver + 0
   05B4 7E                 3556 	ld	a,(hl)
   05B5 B7                 3557 	or	a,a
   05B6 C2 BB 05           3558 	jp	nz,00142$
   05B9 18 03              3559 	jr	00143$
   05BB                    3560 00142$:
   05BB C3 B7 07           3561 	jp	00113$
   05BE                    3562 00143$:
                           3563 ;	main.c 167
                           3564 ; genAssign
                           3565 ; AOP_HL for _i
   05BE 21 29 01           3566 	ld	hl,#_i + 0
   05C1 36 00              3567 	ld	(hl),#0x00
   05C3 21 2A 01           3568 	ld	hl,#_i + 1
   05C6 36 00              3569 	ld	(hl),#0x00
                           3570 ; genLabel
   05C8                    3571 00119$:
                           3572 ; genAssign
                           3573 ; AOP_HL for _asteroidcount
                           3574 ; AOP_STK for _GameLoop_sloc3_1_0
   05C8 21 15 09           3575 	ld	hl,#_asteroidcount + 0
   05CB 7E                 3576 	ld	a,(hl)
   05CC 21 16 09           3577 	ld	hl,#_asteroidcount + 1
   05CF 5E                 3578 	ld	e,(hl)
   05D0 F8 16              3579 	lda	hl,22(sp)
   05D2 77                 3580 	ld	(hl),a ; 3
   05D3 23                 3581 	inc	hl
   05D4 73                 3582 	ld	(hl),e ; 3
                           3583 ; genCmpLt
                           3584 ; AOP_HL for _i
                           3585 ; AOP_STK for _GameLoop_sloc3_1_0
                           3586 ; AOP_STK for _GameLoop_sloc2_1_0
   05D5 21 2A 01           3587 	ld	hl,#_i + 1
   05D8 7E                 3588 	ld	a,(hl)
   05D9 EE 80              3589 	xor	a,#0x80
   05DB 5F                 3590 	ld	e,a
   05DC F8 17              3591 	lda	hl,23(sp)
   05DE 7E                 3592 	ld	a,(hl)
   05DF EE 80              3593 	xor	a,#0x80
   05E1 57                 3594 	ld	d,a
   05E2 21 29 01           3595 	ld	hl,#_i + 0
   05E5 7E                 3596 	ld	a,(hl)
   05E6 F8 16              3597 	lda	hl,22(sp)
   05E8 9E                 3598 	sbc	a,(hl) ; 2
   05E9 7B                 3599 	ld	a,e
   05EA 9A                 3600 	sbc	a,d
   05EB 3E 00              3601 	ld	a,#0x00
   05ED 17                 3602 	rla
   05EE 23                 3603 	inc	hl
   05EF 23                 3604 	inc	hl
   05F0 77                 3605 	ld	(hl),a ; 3
                           3606 ; genIfx
                           3607 ; AOP_STK for _GameLoop_sloc2_1_0
                           3608 ; Removed redundent or a,a
   05F1 AF                 3609 	xor	a,a
   05F2 B6                 3610 	or	a,(hl)
   05F3 CA 4D 07           3611 	jp	z,00122$
                           3612 ;	main.c 170
                           3613 ; genIpush
   05F6 21 0A 00           3614 	ld	hl,#0x000A
   05F9 E5                 3615 	push	hl
                           3616 ; genIpush
                           3617 ; AOP_HL for _i
   05FA 21 29 01           3618 	ld	hl,#_i + 0
   05FD 2A                 3619 	ld	a,(hl+)
   05FE 66                 3620 	ld	h,(hl)
   05FF 6F                 3621 	ld	l,a
   0600 E5                 3622 	push	hl
                           3623 ; genCall
   0601 CD 00 00           3624 	call	__mulsint
                           3625 ; AOP_STK for _GameLoop_sloc5_1_0
   0604 F8 17              3626 	lda	hl,23(sp)
   0606 72                 3627 	ld	(hl),d ; 3
   0607 2B                 3628 	dec	hl
   0608 73                 3629 	ld	(hl),e ; 3
   0609 E8 04              3630 	lda	sp,4(sp)
                           3631 ; genPlus
                           3632 ; AOP_STK for _GameLoop_sloc5_1_0
                           3633 ; AOP_STK for _GameLoop_sloc4_1_0
   060B 3E 0B              3634 	ld	a,#<_asteroid
   060D 86                 3635 	add	a,(hl)
   060E 23                 3636 	inc	hl
   060F 23                 3637 	inc	hl
   0610 77                 3638 	ld	(hl),a ; 3
   0611 3E 01              3639 	ld	a,#>_asteroid
   0613 2B                 3640 	dec	hl
   0614 8E                 3641 	adc	a,(hl)
   0615 23                 3642 	inc	hl
   0616 23                 3643 	inc	hl
   0617 77                 3644 	ld	(hl),a ; 3
                           3645 ; genIpush
                           3646 ; AOP_STK for _GameLoop_sloc4_1_0
   0618 2B                 3647 	dec	hl
   0619 2A                 3648 	ld	a,(hl+)
   061A 66                 3649 	ld	h,(hl)
   061B 6F                 3650 	ld	l,a
   061C E5                 3651 	push	hl
                           3652 ; genIpush
   061D 21 00 01           3653 	ld	hl,#_ship + 0
   0620 E5                 3654 	push	hl
                           3655 ; genCall
   0621 CD 00 00           3656 	call	_checkCollisions
                           3657 ; AOP_STK for _GameLoop_sloc7_1_0
   0624 F8 14              3658 	lda	hl,20(sp)
   0626 73                 3659 	ld	(hl),e ; 3
   0627 E8 04              3660 	lda	sp,4(sp)
                           3661 ; genIfx
                           3662 ; AOP_STK for _GameLoop_sloc7_1_0
                           3663 ; Removed redundent or a,a
   0629 AF                 3664 	xor	a,a
   062A B6                 3665 	or	a,(hl)
   062B CA 41 06           3666 	jp	z,00102$
                           3667 ;	main.c 172
                           3668 ; genPlus
                           3669 ; AOP_STK for _GameLoop_sloc4_1_0
                           3670 ; genPlusIncr
   062E F8 14              3671 	lda	hl,20(sp)
   0630 7E                 3672 	ld	a,(hl)
   0631 C6 09              3673 	add	a,#0x09
   0633 5F                 3674 	ld	e,a
   0634 23                 3675 	inc	hl
   0635 7E                 3676 	ld	a,(hl)
   0636 CE 00              3677 	adc	a,#0x00
   0638 57                 3678 	ld	d,a
                           3679 ; genAssign (pointer)
   0639 3E 01              3680 	ld	a,#0x01
   063B 12                 3681 	ld	(de),a
                           3682 ;	main.c 173
                           3683 ; genAssign
                           3684 ; AOP_HL for _IsGameOver
   063C 21 51 01           3685 	ld	hl,#_IsGameOver + 0
   063F 36 01              3686 	ld	(hl),#0x01
                           3687 ; genLabel
   0641                    3688 00102$:
                           3689 ;	main.c 175
                           3690 ; genCmpGt
                           3691 ; AOP_HL for _j
                           3692 ; AOP_HL for _asteroidsSpawnXCount
                           3693 ; AOP_STK for _GameLoop_sloc6_1_0
   0641 21 4C 01           3694 	ld	hl,#_asteroidsSpawnXCount + 1
   0644 7E                 3695 	ld	a,(hl)
   0645 EE 80              3696 	xor	a,#0x80
   0647 5F                 3697 	ld	e,a
   0648 21 4E 01           3698 	ld	hl,#_j + 1
   064B 7E                 3699 	ld	a,(hl)
   064C EE 80              3700 	xor	a,#0x80
   064E 57                 3701 	ld	d,a
   064F 21 4B 01           3702 	ld	hl,#_asteroidsSpawnXCount + 0
   0652 7E                 3703 	ld	a,(hl)
   0653 21 4D 01           3704 	ld	hl,#_j + 0
   0656 9E                 3705 	sbc	a,(hl) ; 2
   0657 7B                 3706 	ld	a,e
   0658 9A                 3707 	sbc	a,d
   0659 3E 00              3708 	ld	a,#0x00
   065B 17                 3709 	rla
   065C F8 11              3710 	lda	hl,17(sp)
   065E 77                 3711 	ld	(hl),a ; 3
                           3712 ; genIfx
                           3713 ; AOP_STK for _GameLoop_sloc6_1_0
                           3714 ; Removed redundent or a,a
   065F AF                 3715 	xor	a,a
   0660 B6                 3716 	or	a,(hl)
   0661 CA 6E 06           3717 	jp	z,00104$
                           3718 ;	main.c 177
                           3719 ; genAssign
                           3720 ; AOP_HL for _j
   0664 21 4D 01           3721 	ld	hl,#_j + 0
   0667 36 00              3722 	ld	(hl),#0x00
   0669 21 4E 01           3723 	ld	hl,#_j + 1
   066C 36 00              3724 	ld	(hl),#0x00
                           3725 ; genLabel
   066E                    3726 00104$:
                           3727 ;	main.c 180
                           3728 ; genPlus
                           3729 ; AOP_STK for _GameLoop_sloc4_1_0
                           3730 ; AOP_STK for _GameLoop_sloc9_1_0
                           3731 ; genPlusIncr
   066E F8 14              3732 	lda	hl,20(sp)
   0670 7E                 3733 	ld	a,(hl)
   0671 C6 05              3734 	add	a,#0x05
   0673 F8 0D              3735 	lda	hl,13(sp)
   0675 77                 3736 	ld	(hl),a ; 3
   0676 F8 15              3737 	lda	hl,21(sp)
   0678 7E                 3738 	ld	a,(hl)
   0679 CE 00              3739 	adc	a,#0x00
   067B F8 0E              3740 	lda	hl,14(sp)
   067D 77                 3741 	ld	(hl),a ; 3
                           3742 ; genPointerGet
                           3743 ; AOP_STK for _GameLoop_sloc9_1_0
                           3744 ; AOP_STK for _GameLoop_sloc8_1_0
   067E 2B                 3745 	dec	hl
   067F 5E                 3746 	ld	e,(hl)
   0680 23                 3747 	inc	hl
   0681 56                 3748 	ld	d,(hl)
   0682 1A                 3749 	ld	a,(de)
   0683 23                 3750 	inc	hl
   0684 77                 3751 	ld	(hl),a ; 3
                           3752 ; genPlus
                           3753 ; AOP_STK for _GameLoop_sloc8_1_0
                           3754 ; AOP_STK for _GameLoop_sloc11_1_0
                           3755 ; genPlusIncr
   0685 7E                 3756 	ld	a,(hl)
   0686 C6 02              3757 	add	a,#0x02
   0688 F8 0B              3758 	lda	hl,11(sp)
   068A 77                 3759 	ld	(hl),a ; 3
                           3760 ; genAssign (pointer)
                           3761 ; AOP_STK for _GameLoop_sloc9_1_0
                           3762 ; AOP_STK for _GameLoop_sloc11_1_0
   068B 23                 3763 	inc	hl
   068C 23                 3764 	inc	hl
   068D 5E                 3765 	ld	e,(hl)
   068E 23                 3766 	inc	hl
   068F 56                 3767 	ld	d,(hl)
   0690 F8 0B              3768 	lda	hl,11(sp)
   0692 7E                 3769 	ld	a,(hl)
   0693 12                 3770 	ld	(de),a
                           3771 ;	main.c 181
                           3772 ; genCmpLt
                           3773 ; AOP_STK for _GameLoop_sloc11_1_0
                           3774 ; AOP_STK for _GameLoop_sloc10_1_0
   0694 7E                 3775 	ld	a,(hl)
   0695 FE 90              3776 	cp	#0x90
   0697 3E 00              3777 	ld	a,#0x00
   0699 17                 3778 	rla
   069A 23                 3779 	inc	hl
   069B 77                 3780 	ld	(hl),a ; 3
                           3781 ; genIfx
                           3782 ; AOP_STK for _GameLoop_sloc10_1_0
                           3783 ; Removed redundent or a,a
   069C AF                 3784 	xor	a,a
   069D B6                 3785 	or	a,(hl)
   069E C2 09 07           3786 	jp	nz,00106$
                           3787 ;	main.c 183
                           3788 ; genAssign (pointer)
                           3789 ; AOP_STK for _GameLoop_sloc9_1_0
   06A1 23                 3790 	inc	hl
   06A2 5E                 3791 	ld	e,(hl)
   06A3 23                 3792 	inc	hl
   06A4 56                 3793 	ld	d,(hl)
   06A5 3E 00              3794 	ld	a,#0x00
   06A7 12                 3795 	ld	(de),a
                           3796 ;	main.c 184
                           3797 ; genPlus
                           3798 ; AOP_STK for _GameLoop_sloc4_1_0
                           3799 ; AOP_STK for _GameLoop_sloc12_1_0
                           3800 ; genPlusIncr
   06A8 F8 14              3801 	lda	hl,20(sp)
   06AA 7E                 3802 	ld	a,(hl)
   06AB C6 04              3803 	add	a,#0x04
   06AD F8 09              3804 	lda	hl,9(sp)
   06AF 77                 3805 	ld	(hl),a ; 3
   06B0 F8 15              3806 	lda	hl,21(sp)
   06B2 7E                 3807 	ld	a,(hl)
   06B3 CE 00              3808 	adc	a,#0x00
   06B5 F8 0A              3809 	lda	hl,10(sp)
   06B7 77                 3810 	ld	(hl),a ; 3
                           3811 ; genLeftShift
                           3812 ; AOP_HL for _j
                           3813 ; AOP_STK for _GameLoop_sloc13_1_0
   06B8 21 4D 01           3814 	ld	hl,#_j + 0
   06BB 7E                 3815 	ld	a,(hl)
   06BC F8 07              3816 	lda	hl,7(sp)
   06BE 77                 3817 	ld	(hl),a ; 3
   06BF 21 4E 01           3818 	ld	hl,#_j + 1
   06C2 7E                 3819 	ld	a,(hl)
   06C3 F8 08              3820 	lda	hl,8(sp)
   06C5 77                 3821 	ld	(hl),a ; 3
   06C6 B7                 3822 	or	a,a
   06C7 2B                 3823 	dec	hl
   06C8 CB 16              3824 	rl	(hl)
   06CA 23                 3825 	inc	hl
   06CB CB 16              3826 	rl	(hl)
                           3827 ; genPlus
                           3828 ; AOP_STK for _GameLoop_sloc13_1_0
   06CD 3E 2B              3829 	ld	a,#<_asteroidsSpawnX
   06CF 2B                 3830 	dec	hl
   06D0 86                 3831 	add	a,(hl)
   06D1 5F                 3832 	ld	e,a
   06D2 3E 01              3833 	ld	a,#>_asteroidsSpawnX
   06D4 23                 3834 	inc	hl
   06D5 8E                 3835 	adc	a,(hl)
   06D6 57                 3836 	ld	d,a
                           3837 ; genPointerGet
                           3838 ; AOP_STK for _GameLoop_sloc15_1_0
                           3839 ; Removed redundent load
                           3840 ; Removed redundent load
   06D7 1A                 3841 	ld	a,(de)
   06D8 F8 04              3842 	lda	hl,4(sp)
   06DA 77                 3843 	ld	(hl),a ; 3
   06DB 13                 3844 	inc	de
   06DC 1A                 3845 	ld	a,(de)
   06DD 23                 3846 	inc	hl
   06DE 77                 3847 	ld	(hl),a ; 3
                           3848 ; genCast
                           3849 ; AOP_STK for _GameLoop_sloc15_1_0
                           3850 ; AOP_STK for _GameLoop_sloc14_1_0
   06DF 2B                 3851 	dec	hl
   06E0 2A                 3852 	ld	a,(hl+)
   06E1 23                 3853 	inc	hl
   06E2 77                 3854 	ld	(hl),a ; 3
                           3855 ; genAssign (pointer)
                           3856 ; AOP_STK for _GameLoop_sloc12_1_0
                           3857 ; AOP_STK for _GameLoop_sloc14_1_0
   06E3 F8 09              3858 	lda	hl,9(sp)
   06E5 5E                 3859 	ld	e,(hl)
   06E6 23                 3860 	inc	hl
   06E7 56                 3861 	ld	d,(hl)
   06E8 F8 06              3862 	lda	hl,6(sp)
   06EA 7E                 3863 	ld	a,(hl)
   06EB 12                 3864 	ld	(de),a
                           3865 ;	main.c 185
                           3866 ; genPlus
                           3867 ; AOP_HL for _j
                           3868 ; AOP_STK for _GameLoop_sloc16_1_0
                           3869 ; genPlusIncr
   06EC 21 4D 01           3870 	ld	hl,#_j + 0
   06EF 7E                 3871 	ld	a,(hl)
   06F0 C6 01              3872 	add	a,#0x01
   06F2 F8 02              3873 	lda	hl,2(sp)
   06F4 77                 3874 	ld	(hl),a ; 3
   06F5 21 4E 01           3875 	ld	hl,#_j + 1
   06F8 7E                 3876 	ld	a,(hl)
   06F9 CE 00              3877 	adc	a,#0x00
   06FB F8 03              3878 	lda	hl,3(sp)
   06FD 77                 3879 	ld	(hl),a ; 3
                           3880 ; genAssign
                           3881 ; AOP_STK for _GameLoop_sloc16_1_0
                           3882 ; AOP_HL for _j
   06FE 2B                 3883 	dec	hl
   06FF 2A                 3884 	ld	a,(hl+)
   0700 5E                 3885 	ld	e,(hl)
   0701 21 4D 01           3886 	ld	hl,#_j + 0
   0704 77                 3887 	ld	(hl),a
   0705 21 4E 01           3888 	ld	hl,#_j + 1
   0708 73                 3889 	ld	(hl),e
                           3890 ; genAssign
                           3891 ; AOP_HL for _j
                           3892 ; (registers are the same)
                           3893 ; genLabel
   0709                    3894 00106$:
                           3895 ;	main.c 187
                           3896 ; genPointerGet
                           3897 ; AOP_STK for _GameLoop_sloc9_1_0
                           3898 ; AOP_STK for _GameLoop_sloc18_1_0
   0709 F8 0D              3899 	lda	hl,13(sp)
   070B 5E                 3900 	ld	e,(hl)
   070C 23                 3901 	inc	hl
   070D 56                 3902 	ld	d,(hl)
   070E 1A                 3903 	ld	a,(de)
   070F F8 00              3904 	lda	hl,0(sp)
   0711 77                 3905 	ld	(hl),a ; 3
                           3906 ; genPlus
                           3907 ; AOP_STK for _GameLoop_sloc4_1_0
                           3908 ; genPlusIncr
   0712 F8 14              3909 	lda	hl,20(sp)
   0714 7E                 3910 	ld	a,(hl)
   0715 C6 04              3911 	add	a,#0x04
   0717 5F                 3912 	ld	e,a
   0718 23                 3913 	inc	hl
   0719 7E                 3914 	ld	a,(hl)
   071A CE 00              3915 	adc	a,#0x00
   071C 57                 3916 	ld	d,a
                           3917 ; genPointerGet
                           3918 ; AOP_STK for _GameLoop_sloc17_1_0
   071D 1A                 3919 	ld	a,(de)
   071E F8 01              3920 	lda	hl,1(sp)
   0720 77                 3921 	ld	(hl),a ; 3
                           3922 ; genIpush
                           3923 ; AOP_STK for _GameLoop_sloc18_1_0
   0721 2B                 3924 	dec	hl
   0722 7E                 3925 	ld	a,(hl)
   0723 F5                 3926 	push	af
   0724 33                 3927 	inc	sp
                           3928 ; genIpush
                           3929 ; AOP_STK for _GameLoop_sloc17_1_0
   0725 23                 3930 	inc	hl
   0726 7E                 3931 	ld	a,(hl)
   0727 F5                 3932 	push	af
   0728 33                 3933 	inc	sp
                           3934 ; genIpush
                           3935 ; AOP_STK for _GameLoop_sloc4_1_0
   0729 F8 16              3936 	lda	hl,22(sp)
   072B 2A                 3937 	ld	a,(hl+)
   072C 66                 3938 	ld	h,(hl)
   072D 6F                 3939 	ld	l,a
   072E E5                 3940 	push	hl
                           3941 ; genCall
   072F CD 92 01           3942 	call	_movegamecharacter
   0732 E8 04              3943 	lda	sp,4(sp)
                           3944 ;	main.c 167
                           3945 ; genPlus
                           3946 ; AOP_HL for _i
                           3947 ; genPlusIncr
   0734 21 29 01           3948 	ld	hl,#_i + 0
   0737 7E                 3949 	ld	a,(hl)
   0738 C6 01              3950 	add	a,#0x01
   073A 47                 3951 	ld	b,a
   073B 21 2A 01           3952 	ld	hl,#_i + 1
   073E 7E                 3953 	ld	a,(hl)
   073F CE 00              3954 	adc	a,#0x00
   0741 4F                 3955 	ld	c,a
                           3956 ; genAssign
                           3957 ; AOP_HL for _i
   0742 21 29 01           3958 	ld	hl,#_i + 0
   0745 70                 3959 	ld	(hl),b
   0746 21 2A 01           3960 	ld	hl,#_i + 1
   0749 71                 3961 	ld	(hl),c
                           3962 ; genAssign
                           3963 ; AOP_HL for _i
                           3964 ; (registers are the same)
                           3965 ; genGoto
   074A C3 C8 05           3966 	jp	00119$
                           3967 ; genLabel
   074D                    3968 00122$:
                           3969 ;	main.c 189
                           3970 ; genCall
   074D CD 00 00           3971 	call	_joypad
   0750 4B                 3972 	ld	c,e
                           3973 ; genAnd
   0751 79                 3974 	ld	a,c
   0752 CB 4F              3975 	bit	1,a
   0754 CA 7C 07           3976 	jp	z,00108$
                           3977 ;	main.c 191
                           3978 ; genPointerGet
                           3979 ; AOP_STK for _GameLoop_sloc0_1_0
   0757 F8 1B              3980 	lda	hl,27(sp)
   0759 5E                 3981 	ld	e,(hl)
   075A 23                 3982 	inc	hl
   075B 56                 3983 	ld	d,(hl)
   075C 1A                 3984 	ld	a,(de)
   075D 4F                 3985 	ld	c,a
                           3986 ; genMinus
   075E 0D                 3987 	dec	c
   075F 0D                 3988 	dec	c
                           3989 ; genAssign (pointer)
                           3990 ; AOP_STK for _GameLoop_sloc0_1_0
   0760 2B                 3991 	dec	hl
   0761 5E                 3992 	ld	e,(hl)
   0762 23                 3993 	inc	hl
   0763 56                 3994 	ld	d,(hl)
   0764 79                 3995 	ld	a,c
   0765 12                 3996 	ld	(de),a
                           3997 ;	main.c 192
                           3998 ; genPointerGet
                           3999 ; AOP_STK for _GameLoop_sloc1_1_0
   0766 F8 19              4000 	lda	hl,25(sp)
   0768 5E                 4001 	ld	e,(hl)
   0769 23                 4002 	inc	hl
   076A 56                 4003 	ld	d,(hl)
   076B 1A                 4004 	ld	a,(de)
   076C 47                 4005 	ld	b,a
                           4006 ; genIpush
   076D 78                 4007 	ld	a,b
   076E F5                 4008 	push	af
   076F 33                 4009 	inc	sp
                           4010 ; genIpush
   0770 79                 4011 	ld	a,c
   0771 F5                 4012 	push	af
   0772 33                 4013 	inc	sp
                           4014 ; genIpush
   0773 21 00 01           4015 	ld	hl,#_ship + 0
   0776 E5                 4016 	push	hl
                           4017 ; genCall
   0777 CD 92 01           4018 	call	_movegamecharacter
   077A E8 04              4019 	lda	sp,4(sp)
                           4020 ; genLabel
   077C                    4021 00108$:
                           4022 ;	main.c 194
                           4023 ; genCall
   077C CD 00 00           4024 	call	_joypad
   077F 4B                 4025 	ld	c,e
                           4026 ; genAnd
   0780 79                 4027 	ld	a,c
   0781 CB 47              4028 	bit	0,a
   0783 CA AB 07           4029 	jp	z,00110$
                           4030 ;	main.c 196
                           4031 ; genPointerGet
                           4032 ; AOP_STK for _GameLoop_sloc0_1_0
   0786 F8 1B              4033 	lda	hl,27(sp)
   0788 5E                 4034 	ld	e,(hl)
   0789 23                 4035 	inc	hl
   078A 56                 4036 	ld	d,(hl)
   078B 1A                 4037 	ld	a,(de)
   078C 4F                 4038 	ld	c,a
                           4039 ; genPlus
                           4040 ; genPlusIncr
   078D 0C                 4041 	inc	c
   078E 0C                 4042 	inc	c
                           4043 ; genAssign (pointer)
                           4044 ; AOP_STK for _GameLoop_sloc0_1_0
   078F 2B                 4045 	dec	hl
   0790 5E                 4046 	ld	e,(hl)
   0791 23                 4047 	inc	hl
   0792 56                 4048 	ld	d,(hl)
   0793 79                 4049 	ld	a,c
   0794 12                 4050 	ld	(de),a
                           4051 ;	main.c 198
                           4052 ; genPointerGet
                           4053 ; AOP_STK for _GameLoop_sloc1_1_0
   0795 F8 19              4054 	lda	hl,25(sp)
   0797 5E                 4055 	ld	e,(hl)
   0798 23                 4056 	inc	hl
   0799 56                 4057 	ld	d,(hl)
   079A 1A                 4058 	ld	a,(de)
   079B 47                 4059 	ld	b,a
                           4060 ; genIpush
   079C 78                 4061 	ld	a,b
   079D F5                 4062 	push	af
   079E 33                 4063 	inc	sp
                           4064 ; genIpush
   079F 79                 4065 	ld	a,c
   07A0 F5                 4066 	push	af
   07A1 33                 4067 	inc	sp
                           4068 ; genIpush
   07A2 21 00 01           4069 	ld	hl,#_ship + 0
   07A5 E5                 4070 	push	hl
                           4071 ; genCall
   07A6 CD 92 01           4072 	call	_movegamecharacter
   07A9 E8 04              4073 	lda	sp,4(sp)
                           4074 ; genLabel
   07AB                    4075 00110$:
                           4076 ;	main.c 201
                           4077 ; genIpush
   07AB 3E 02              4078 	ld	a,#0x02
   07AD F5                 4079 	push	af
   07AE 33                 4080 	inc	sp
                           4081 ; genCall
   07AF CD 7E 01           4082 	call	_performantdelay
   07B2 E8 01              4083 	lda	sp,1(sp)
                           4084 ; genGoto
   07B4 C3 B1 05           4085 	jp	00111$
                           4086 ; genLabel
   07B7                    4087 00113$:
                           4088 ;	main.c 203
                           4089 ; genMinus
                           4090 ; AOP_HL for _HP
   07B7 21 4F 01           4091 	ld	hl,#_HP + 0
   07BA 7E                 4092 	ld	a,(hl)
   07BB C6 FF              4093 	add	a,#0xFF
   07BD 77                 4094 	ld	(hl),a
   07BE 21 50 01           4095 	ld	hl,#_HP + 1
   07C1 7E                 4096 	ld	a,(hl)
   07C2 CE FF              4097 	adc	a,#0xFF
   07C4 77                 4098 	ld	(hl),a
                           4099 ;	main.c 204
                           4100 ; genCmpGt
                           4101 ; AOP_HL for _HP
   07C5 1E 80              4102 	ld	e,#0x80
   07C7 7E                 4103 	ld	a,(hl)
   07C8 EE 80              4104 	xor	a,#0x80
   07CA 57                 4105 	ld	d,a
   07CB 3E 00              4106 	ld	a,#0x00
   07CD 21 4F 01           4107 	ld	hl,#_HP + 0
   07D0 9E                 4108 	sbc	a,(hl) ; 2
   07D1 7B                 4109 	ld	a,e
   07D2 9A                 4110 	sbc	a,d
   07D3 D2 CC 08           4111 	jp	nc,00117$
                           4112 ;	main.c 206
                           4113 ; genAssign
                           4114 ; AOP_HL for _i
   07D6 21 29 01           4115 	ld	hl,#_i + 0
   07D9 36 00              4116 	ld	(hl),#0x00
   07DB 21 2A 01           4117 	ld	hl,#_i + 1
   07DE 36 00              4118 	ld	(hl),#0x00
                           4119 ; genLabel
   07E0                    4120 00123$:
                           4121 ; genAssign
                           4122 ; AOP_HL for _asteroidcount
   07E0 21 15 09           4123 	ld	hl,#_asteroidcount + 0
   07E3 4E                 4124 	ld	c,(hl)
   07E4 21 16 09           4125 	ld	hl,#_asteroidcount + 1
   07E7 46                 4126 	ld	b,(hl)
                           4127 ; genCmpLt
                           4128 ; AOP_HL for _i
   07E8 21 2A 01           4129 	ld	hl,#_i + 1
   07EB 7E                 4130 	ld	a,(hl)
   07EC EE 80              4131 	xor	a,#0x80
   07EE 5F                 4132 	ld	e,a
   07EF 78                 4133 	ld	a,b
   07F0 EE 80              4134 	xor	a,#0x80
   07F2 57                 4135 	ld	d,a
   07F3 21 29 01           4136 	ld	hl,#_i + 0
   07F6 7E                 4137 	ld	a,(hl)
   07F7 99                 4138 	sbc	a,c ; 2
   07F8 7B                 4139 	ld	a,e
   07F9 9A                 4140 	sbc	a,d
   07FA D2 B7 08           4141 	jp	nc,00126$
                           4142 ;	main.c 208
                           4143 ; genCmpGt
                           4144 ; AOP_HL for _j
                           4145 ; AOP_HL for _asteroidsSpawnXCount
   07FD 21 4C 01           4146 	ld	hl,#_asteroidsSpawnXCount + 1
   0800 7E                 4147 	ld	a,(hl)
   0801 EE 80              4148 	xor	a,#0x80
   0803 5F                 4149 	ld	e,a
   0804 21 4E 01           4150 	ld	hl,#_j + 1
   0807 7E                 4151 	ld	a,(hl)
   0808 EE 80              4152 	xor	a,#0x80
   080A 57                 4153 	ld	d,a
   080B 21 4B 01           4154 	ld	hl,#_asteroidsSpawnXCount + 0
   080E 7E                 4155 	ld	a,(hl)
   080F 21 4D 01           4156 	ld	hl,#_j + 0
   0812 9E                 4157 	sbc	a,(hl) ; 2
   0813 7B                 4158 	ld	a,e
   0814 9A                 4159 	sbc	a,d
   0815 D2 1F 08           4160 	jp	nc,00115$
                           4161 ;	main.c 210
                           4162 ; genAssign
                           4163 ; AOP_HL for _j
   0818 36 00              4164 	ld	(hl),#0x00
   081A 21 4E 01           4165 	ld	hl,#_j + 1
   081D 36 00              4166 	ld	(hl),#0x00
                           4167 ; genLabel
   081F                    4168 00115$:
                           4169 ;	main.c 212
                           4170 ; genIpush
   081F 21 0A 00           4171 	ld	hl,#0x000A
   0822 E5                 4172 	push	hl
                           4173 ; genIpush
                           4174 ; AOP_HL for _i
   0823 21 29 01           4175 	ld	hl,#_i + 0
   0826 2A                 4176 	ld	a,(hl+)
   0827 66                 4177 	ld	h,(hl)
   0828 6F                 4178 	ld	l,a
   0829 E5                 4179 	push	hl
                           4180 ; genCall
   082A CD 00 00           4181 	call	__mulsint
   082D 42                 4182 	ld	b,d
   082E 4B                 4183 	ld	c,e
   082F E8 04              4184 	lda	sp,4(sp)
                           4185 ; genPlus
                           4186 ; AOP_STK for _GameLoop_sloc15_1_0
   0831 3E 0B              4187 	ld	a,#<_asteroid
   0833 81                 4188 	add	a,c
   0834 F8 04              4189 	lda	hl,4(sp)
   0836 77                 4190 	ld	(hl),a ; 3
   0837 3E 01              4191 	ld	a,#>_asteroid
   0839 88                 4192 	adc	a,b
   083A 23                 4193 	inc	hl
   083B 77                 4194 	ld	(hl),a ; 3
                           4195 ; genPlus
                           4196 ; AOP_STK for _GameLoop_sloc15_1_0
                           4197 ; AOP_STK for _GameLoop_sloc16_1_0
                           4198 ; genPlusIncr
   083C 2B                 4199 	dec	hl
   083D 7E                 4200 	ld	a,(hl)
   083E C6 04              4201 	add	a,#0x04
   0840 2B                 4202 	dec	hl
   0841 2B                 4203 	dec	hl
   0842 77                 4204 	ld	(hl),a ; 3
   0843 F8 05              4205 	lda	hl,5(sp)
   0845 7E                 4206 	ld	a,(hl)
   0846 CE 00              4207 	adc	a,#0x00
   0848 2B                 4208 	dec	hl
   0849 2B                 4209 	dec	hl
   084A 77                 4210 	ld	(hl),a ; 3
                           4211 ; genLeftShift
                           4212 ; AOP_HL for _j
   084B 21 4D 01           4213 	ld	hl,#_j + 0
   084E 4E                 4214 	ld	c,(hl)
   084F 21 4E 01           4215 	ld	hl,#_j + 1
   0852 46                 4216 	ld	b,(hl)
   0853 B7                 4217 	or	a,a
   0854 CB 11              4218 	rl	c
   0856 CB 10              4219 	rl	b
                           4220 ; genPlus
   0858 3E 2B              4221 	ld	a,#<_asteroidsSpawnX
   085A 81                 4222 	add	a,c
   085B 5F                 4223 	ld	e,a
   085C 3E 01              4224 	ld	a,#>_asteroidsSpawnX
   085E 88                 4225 	adc	a,b
   085F 57                 4226 	ld	d,a
                           4227 ; genPointerGet
                           4228 ; Removed redundent load
                           4229 ; Removed redundent load
   0860 1A                 4230 	ld	a,(de)
   0861 4F                 4231 	ld	c,a
   0862 13                 4232 	inc	de
   0863 1A                 4233 	ld	a,(de)
   0864 47                 4234 	ld	b,a
                           4235 ; genCast
                           4236 ; AOP_STK for _GameLoop_sloc18_1_0
   0865 F8 00              4237 	lda	hl,0(sp)
   0867 71                 4238 	ld	(hl),c ; 3
                           4239 ; genAssign (pointer)
                           4240 ; AOP_STK for _GameLoop_sloc16_1_0
                           4241 ; AOP_STK for _GameLoop_sloc18_1_0
   0868 23                 4242 	inc	hl
   0869 23                 4243 	inc	hl
   086A 5E                 4244 	ld	e,(hl)
   086B 23                 4245 	inc	hl
   086C 56                 4246 	ld	d,(hl)
   086D F8 00              4247 	lda	hl,0(sp)
   086F 7E                 4248 	ld	a,(hl)
   0870 12                 4249 	ld	(de),a
                           4250 ;	main.c 213
                           4251 ; genPlus
                           4252 ; AOP_STK for _GameLoop_sloc15_1_0
                           4253 ; genPlusIncr
   0871 F8 04              4254 	lda	hl,4(sp)
   0873 7E                 4255 	ld	a,(hl)
   0874 C6 05              4256 	add	a,#0x05
   0876 5F                 4257 	ld	e,a
   0877 23                 4258 	inc	hl
   0878 7E                 4259 	ld	a,(hl)
   0879 CE 00              4260 	adc	a,#0x00
   087B 57                 4261 	ld	d,a
                           4262 ; genCast
                           4263 ; AOP_HL for _Hight
   087C 21 52 01           4264 	ld	hl,#_Hight + 0
   087F 4E                 4265 	ld	c,(hl)
                           4266 ; genAssign (pointer)
   0880 79                 4267 	ld	a,c
   0881 12                 4268 	ld	(de),a
                           4269 ;	main.c 214
                           4270 ; genPlus
                           4271 ; AOP_HL for _Hight
                           4272 ; genPlusIncr
   0882 7E                 4273 	ld	a,(hl)
   0883 C6 0A              4274 	add	a,#0x0A
   0885 77                 4275 	ld	(hl),a
   0886 21 53 01           4276 	ld	hl,#_Hight + 1
   0889 7E                 4277 	ld	a,(hl)
   088A CE 00              4278 	adc	a,#0x00
   088C 77                 4279 	ld	(hl),a
                           4280 ;	main.c 215
                           4281 ; genPlus
                           4282 ; AOP_HL for _j
                           4283 ; genPlusIncr
   088D 21 4D 01           4284 	ld	hl,#_j + 0
   0890 34                 4285 	inc	(hl)
   0891 20 04              4286 	jr	nz,00144$
   0893 21 4E 01           4287 	ld	hl,#_j + 1
   0896 34                 4288 	inc	(hl)
   0897                    4289 00144$:
                           4290 ;	main.c 216
                           4291 ; genIpush
   0897 79                 4292 	ld	a,c
   0898 F5                 4293 	push	af
   0899 33                 4294 	inc	sp
                           4295 ; genIpush
                           4296 ; AOP_STK for _GameLoop_sloc18_1_0
   089A F8 01              4297 	lda	hl,1(sp)
   089C 7E                 4298 	ld	a,(hl)
   089D F5                 4299 	push	af
   089E 33                 4300 	inc	sp
                           4301 ; genIpush
                           4302 ; AOP_STK for _GameLoop_sloc15_1_0
   089F F8 06              4303 	lda	hl,6(sp)
   08A1 2A                 4304 	ld	a,(hl+)
   08A2 66                 4305 	ld	h,(hl)
   08A3 6F                 4306 	ld	l,a
   08A4 E5                 4307 	push	hl
                           4308 ; genCall
   08A5 CD 92 01           4309 	call	_movegamecharacter
   08A8 E8 04              4310 	lda	sp,4(sp)
                           4311 ;	main.c 206
                           4312 ; genPlus
                           4313 ; AOP_HL for _i
                           4314 ; genPlusIncr
   08AA 21 29 01           4315 	ld	hl,#_i + 0
   08AD 34                 4316 	inc	(hl)
   08AE 20 04              4317 	jr	nz,00145$
   08B0 21 2A 01           4318 	ld	hl,#_i + 1
   08B3 34                 4319 	inc	(hl)
   08B4                    4320 00145$:
                           4321 ; genGoto
   08B4 C3 E0 07           4322 	jp	00123$
                           4323 ; genLabel
   08B7                    4324 00126$:
                           4325 ;	main.c 219
                           4326 ; genAssign
                           4327 ; AOP_HL for _Hight
   08B7 21 52 01           4328 	ld	hl,#_Hight + 0
   08BA 36 00              4329 	ld	(hl),#0x00
   08BC 21 53 01           4330 	ld	hl,#_Hight + 1
   08BF 36 00              4331 	ld	(hl),#0x00
                           4332 ;	main.c 220
                           4333 ; genAssign
                           4334 ; AOP_HL for _IsGameOver
   08C1 21 51 01           4335 	ld	hl,#_IsGameOver + 0
   08C4 36 00              4336 	ld	(hl),#0x00
                           4337 ;	main.c 221
                           4338 ; genCall
   08C6 CD 72 05           4339 	call	_GameLoop
                           4340 ; genGoto
   08C9 C3 D4 08           4341 	jp	00127$
                           4342 ; genLabel
   08CC                    4343 00117$:
                           4344 ;	main.c 225
                           4345 ; genAssign
                           4346 ; AOP_HL for _IsGameOver
   08CC 21 51 01           4347 	ld	hl,#_IsGameOver + 0
   08CF 36 00              4348 	ld	(hl),#0x00
                           4349 ;	main.c 226
                           4350 ; genCall
   08D1 CD 35 04           4351 	call	_GameOver
                           4352 ; genLabel
   08D4                    4353 00127$:
                           4354 ; genEndFunction
   08D4 E8 1D              4355 	lda	sp,29(sp)
   08D6 C1                 4356 	pop bc
   08D7 C9                 4357 	ret
   08D8                    4358 ___GameLoop_end:
                           4359 ;	main.c 232
                           4360 ; genLabel
                           4361 ; genFunction
                           4362 ;	---------------------------------
                           4363 ; Function main
                           4364 ; ---------------------------------
   08D8                    4365 ___main_start:
   08D8                    4366 _main:
   08D8 C5                 4367 	push	bc
                           4368 ;	main.c 236
                           4369 ; genCall
   08D9 CD 00 00           4370 	call	_font_init
                           4371 ;	main.c 237
                           4372 ; genIpush
   08DC 21 00 00           4373 	ld	hl,#_font_ibm + 0
   08DF E5                 4374 	push	hl
                           4375 ; genCall
   08E0 CD 00 00           4376 	call	_font_load
   08E3 42                 4377 	ld	b,d
   08E4 4B                 4378 	ld	c,e
   08E5 E8 02              4379 	lda	sp,2(sp)
                           4380 ;	main.c 238
                           4381 ; genIpush
   08E7 C5                 4382 	push	bc
                           4383 ; genCall
   08E8 CD 00 00           4384 	call	_font_set
   08EB E8 02              4385 	lda	sp,2(sp)
                           4386 ;	main.c 240
                           4387 ; genIpush
   08ED 21 00 00           4388 	ld	hl,#_gamesprites + 0
   08F0 E5                 4389 	push	hl
                           4390 ; genIpush
   08F1 3E 10              4391 	ld	a,#0x10
   08F3 F5                 4392 	push	af
   08F4 33                 4393 	inc	sp
                           4394 ; genIpush
   08F5 3E 00              4395 	ld	a,#0x00
   08F7 F5                 4396 	push	af
   08F8 33                 4397 	inc	sp
                           4398 ; genCall
   08F9 CD 00 00           4399 	call	_set_sprite_data
   08FC E8 04              4400 	lda	sp,4(sp)
                           4401 ;	main.c 241
                           4402 ; genCall
   08FE CD 1C 02           4403 	call	_setupShip
                           4404 ;	main.c 242
                           4405 ; genCall
   0901 CD B0 02           4406 	call	_setupAsteroid
                           4407 ;	main.c 244
                           4408 ; genOr
                           4409 ; AOP_SFR for _LCDC_REG
                           4410 ; Type res[4] = l[4]&r[1]
                           4411 ; Size res[1] = l[1]&r[1]
   0904 F0 00              4412 	ldh	a,(_LCDC_REG+0) ; x
   0906 F6 02              4413 	or	a,#0x02
   0908 E0 00              4414 	ldh	(_LCDC_REG+0),a
                           4415 ;	main.c 245
                           4416 ; genOr
                           4417 ; AOP_SFR for _LCDC_REG
                           4418 ; Type res[4] = l[4]&r[1]
                           4419 ; Size res[1] = l[1]&r[1]
   090A F0 00              4420 	ldh	a,(_LCDC_REG+0) ; x
   090C F6 80              4421 	or	a,#0x80
   090E E0 00              4422 	ldh	(_LCDC_REG+0),a
                           4423 ;	main.c 246
                           4424 ; genCall
   0910 CD 72 05           4425 	call	_GameLoop
                           4426 ; genLabel
   0913                    4427 00101$:
                           4428 ; genEndFunction
   0913 C1                 4429 	pop	bc
   0914 C9                 4430 	ret
   0915                    4431 ___main_end:
                           4432 	.area _CODE
   0915                    4433 _asteroidcount:
   0915 03 00              4434 	.byte #0x03,#0x00
   0917                    4435 __str_0:
   0917 3D 3D 3D 3D 3D 50  4436 	.ascii "=====PRESS START TO TRY AGAIN====="
        52 45 53 53 20 53
        54 41 52 54 20 54
        4F 20 54 52 59 20
        41 47 41 49 4E 3D
        3D 3D 3D 3D
   0939 00                 4437 	.db 0
   093A                    4438 __str_1:
   093A 20 20 20 20 20 20  4439 	.ascii "                                                            "
        20 20 20 20 20 20
        20 20 20 20 20 20
        20 20 20 20 20 20
        20 20 20 20 20 20
        20 20 20 20 20 20
        20 20 20 20 20 20
        20 20 20 20 20 20
        20 20 20 20 20 20
        20 20 20 20 20 20
   0976 00                 4440 	.db 0
   0977                    4441 __str_2:
   0977 48 50 3A 20 25 64  4442 	.ascii "HP: %d"
   097D 00                 4443 	.db 0
ASxxxx Assembler V01.75  (GameBoy Z80-like CPU), page 1.

Symbol Table

    _BCPD_REG                          **** GX
    _BCPS_REG                          **** GX
    _BGP_REG                           **** GX
    _DIV_REG                           **** GX
    _DMA_REG                           **** GX
  0 _GameLoop                          0572 GR
  0 _GameOver                          0435 GR
    _HDMA1_REG                         **** GX
    _HDMA2_REG                         **** GX
    _HDMA3_REG                         **** GX
    _HDMA4_REG                         **** GX
    _HDMA5_REG                         **** GX
  1 _HP                                014F GR
  1 _Hight                             0152 GR
    _IE_REG                            **** GX
    _IF_REG                            **** GX
  1 _IsGameOver                        0151 GR
    _KEY1_REG                          **** GX
    _LCDC_REG                          **** GX
    _LYC_REG                           **** GX
    _LY_REG                            **** GX
    _NR10_REG                          **** GX
    _NR11_REG                          **** GX
    _NR12_REG                          **** GX
    _NR13_REG                          **** GX
    _NR14_REG                          **** GX
    _NR21_REG                          **** GX
    _NR22_REG                          **** GX
    _NR23_REG                          **** GX
    _NR24_REG                          **** GX
    _NR30_REG                          **** GX
    _NR31_REG                          **** GX
    _NR32_REG                          **** GX
    _NR33_REG                          **** GX
    _NR34_REG                          **** GX
    _NR41_REG                          **** GX
    _NR42_REG                          **** GX
    _NR43_REG                          **** GX
    _NR44_REG                          **** GX
    _NR50_REG                          **** GX
    _NR51_REG                          **** GX
    _NR52_REG                          **** GX
    _OBP0_REG                          **** GX
    _OBP1_REG                          **** GX
    _OCPD_REG                          **** GX
    _OCPS_REG                          **** GX
    _P1_REG                            **** GX
    _RP_REG                            **** GX
    _SB_REG                            **** GX
    _SCX_REG                           **** GX
    _SCY_REG                           **** GX
    _SC_REG                            **** GX
    _STAT_REG                          **** GX
    _SVBK_REG                          **** GX
    _TAC_REG                           **** GX
    _TIMA_REG                          **** GX
    _TMA_REG                           **** GX
    _VBK_REG                           **** GX
    _WX_REG                            **** GX
    _WY_REG                            **** GX
  0 ___GameLoop_end                    08D8 R
  0 ___GameLoop_start                  0572 R
  0 ___GameOver_end                    0572 R
  0 ___GameOver_start                  0435 R
  0 ___checkCollisions_end             017E R
  0 ___checkCollisions_start           0000 R
  0 ___main_end                        0915 R
  0 ___main_start                      08D8 R
  0 ___movegamecharacter_end           021C R
  0 ___movegamecharacter_start         0192 R
  0 ___performantdelay_end             0192 R
  0 ___performantdelay_start           017E R
  0 ___setupAsteroid_end               0435 R
  0 ___setupAsteroid_start             02B0 R
  0 ___setupShip_end                   02B0 R
  0 ___setupShip_start                 021C R
    __cpu                              **** GX
    __io_in                            **** GX
    __io_out                           **** GX
    __io_status                        **** GX
    __mulsint                          **** GX
  0 __str_0                            0917 R
  0 __str_1                            093A R
  0 __str_2                            0977 R
    _add_LCD                           **** GX
    _add_TIM                           **** GX
    _add_VBL                           **** GX
  1 _asteroid                          010B GR
  0 _asteroidcount                     0915 GR
  1 _asteroidsSpawnX                   012B GR
  1 _asteroidsSpawnXCount              014B GR
    _box                               **** GX
    _cgb_compatibility                 **** GX
  0 _checkCollisions                   0000 GR
    _circle                            **** GX
    _color                             **** GX
    _cpu_fast                          **** GX
    _cpu_slow                          **** GX
    _delay                             **** GX
    _disable_interrupts                **** GX
    _display_off                       **** GX
    _draw_image                        **** GX
    _enable_interrupts                 **** GX
    _font_ibm                          **** GX
    _font_ibm_fixed                    **** GX
    _font_init                         **** GX
    _font_italic                       **** GX
    _font_load                         **** GX
    _font_min                          **** GX
    _font_set                          **** GX
    _font_spect                        **** GX
  1 _gamesprites                       0000 GR
    _get_bkg_tiles                     **** GX
    _get_data                          **** GX
    _get_mode                          **** GX
    _get_sprite_data                   **** GX
    _get_sprite_prop                   **** GX
    _get_sprite_tile                   **** GX
    _get_tiles                         **** GX
    _get_win_tiles                     **** GX
    _getpix                            **** GX
    _gets                              **** GX
    _gotogxy                           **** GX
    _gotoxy                            **** GX
    _gprint                            **** GX
    _gprintf                           **** GX
    _gprintln                          **** GX
    _gprintn                           **** GX
    _hiramcpy                          **** GX
  1 _i                                 0129 GR
  1 _j                                 014D GR
    _joypad                            **** GX
    _line                              **** GX
  0 _main                              08D8 GR
    _mode                              **** GX
    _move_bkg                          **** GX
    _move_sprite                       **** GX
    _move_win                          **** GX
  0 _movegamecharacter                 0192 GR
  0 _performantdelay                   017E GR
    _plot                              **** GX
    _plot_point                        **** GX
    _posx                              **** GX
    _posy                              **** GX
    _print_repeat                      **** GX
    _printf                            **** GX
    _putchar                           **** GX
    _puts                              **** GX
    _receive_byte                      **** GX
    _remove_JOY                        **** GX
    _remove_LCD                        **** GX
    _remove_SIO                        **** GX
    _remove_TIM                        **** GX
    _remove_VBL                        **** GX
    _reset                             **** GX
    _scroll_bkg                        **** GX
    _scroll_sprite                     **** GX
    _scroll_win                        **** GX
    _send_byte                         **** GX
    _set_bkg_data                      **** GX
    _set_bkg_palette                   **** GX
    _set_bkg_palette_entry             **** GX
    _set_bkg_tiles                     **** GX
    _set_data                          **** GX
    _set_interrupts                    **** GX
    _set_sprite_data                   **** GX
    _set_sprite_palette                **** GX
    _set_sprite_palette_entry          **** GX
    _set_sprite_prop                   **** GX
    _set_sprite_tile                   **** GX
    _set_tiles                         **** GX
    _set_win_data                      **** GX
    _set_win_tiles                     **** GX
    _setchar                           **** GX
  0 _setupAsteroid                     02B0 GR
  0 _setupShip                         021C GR
    _sgb_check                         **** GX
  1 _ship                              0100 GR
    _sprintf                           **** GX
  1 _spritesize                        010A GR
    _switch_data                       **** GX
    _sys_time                          **** GX
    _wait_vbl_done                     **** GX
    _waitpad                           **** GX
    _waitpadup                         **** GX
    _wrtchr                            **** GX

ASxxxx Assembler V01.75  (GameBoy Z80-like CPU), page 2.

Area Table

   0 _CODE                              size  97E   flags 0
   1 _DATA                              size  154   flags 0
   2 _OVERLAY                           size    0   flags 0
   3 _ISEG                              size    0   flags 0
   4 _BSEG                              size    0   flags 0
   5 _XSEG                              size    0   flags 0
   6 _GSINIT                            size  6C8   flags 0
   7 _GSFINAL                           size    0   flags 0
